 oal

 Timestamp is 4f96ec76 (Wed Apr 25 02:09:58 2012)

 Preferred load address is 00010000

 Start         Length     Name                   Class
 0001:00000000 00004cd0H .rdata                  CODE
 0001:00004cd0 00000020H .rdata$debug            CODE
 0001:00004cf0 0000d7b8H .text                   CODE
 0001:000124a8 00000010H .xdata                  CODE
 0001:000124b8 00000000H .edata                  CODE
 0002:00000000 00000704H .data                   DATA
 0002:00000720 0000036cH .bss                    DATA
 0003:00000000 00000d5cH .pdata                  DATA
 0004:00000000 00002000H .KDATA                  DATA

  Address         Publics by Value              Rva+Base       Lib:Object

 0000:00000000       ___safe_se_handler_count   00000000     <absolute>
 0000:00000000       ___safe_se_handler_table   00000000     <absolute>
 0001:0000001c       pTOC                       0001101c     nkldr:ldrcmn.obj
 0001:00000020       RomExt                     00011020     nkldr:ldrcmn.obj
 0001:0000004c       ??_C@_0L@CPPPICDM@kernel?4dll?$AA@ 0001104c     nkldr:ldrcmn.obj
 0001:00000058       dwOEMArchOverride          00011058     oemmain:oemconst.obj
 0001:000000ec       ??_C@_1CA@OPOEDFEF@?$AA?9?$AAO?$AAA?$AAL?$AAR?$AAT?$AAC?$AAI?$AAn?$AAi?$AAt?$AA?$CI?$AA?$CJ?$AA?$AN?$AA?6?$AA?$AA@ 000110ec     oal:rtc.obj
 0001:0000010c       ??_C@_1CA@KGKLCCHK@?$AA?$CL?$AAO?$AAA?$AAL?$AAR?$AAT?$AAC?$AAI?$AAn?$AAi?$AAt?$AA?$CI?$AA?$CJ?$AA?$AN?$AA?6?$AA?$AA@ 0001110c     oal:rtc.obj
 0001:0000012c       ??_C@_1DO@FGGICPPB@?$AA?9?$AAO?$AAA?$AAL?$AAI?$AAo?$AAC?$AAt?$AAl?$AAH?$AAa?$AAl?$AAI?$AAn?$AAi?$AAt?$AAR?$AAT?$AAC?$AA?$CI?$AAr?$AAc?$AA?5?$AA?$DN?$AA?5?$AA?$CF?$AAd?$AA?$CJ?$AA?$AN?$AA?6?$AA?$AA@ 0001112c     oal:rtc.obj
 0001:0000016c       ??_C@_1GA@HLCFANML@?$AAE?$AAR?$AAR?$AAO?$AAR?$AA?3?$AA?5?$AAI?$AAn?$AAv?$AAa?$AAl?$AAi?$AAd?$AA?5?$AAc?$AAa?$AAl?$AAl?$AAi?$AAn?$AAg?$AA?5?$AAp?$AAa?$AAr?$AAa?$AAm?$AAe?$AAt?$AAe?$AAr@ 0001116c     oal:rtc.obj
 0001:000001cc       ??_C@_1DA@GMIOKMIL@?$AA?$CL?$AAO?$AAA?$AAL?$AAI?$AAo?$AAC?$AAt?$AAl?$AAH?$AAa?$AAl?$AAI?$AAn?$AAi?$AAt?$AAR?$AAT?$AAC?$AA?$CI?$AA?$CJ?$AA?$AN?$AA?6?$AA?$AA@ 000111cc     oal:rtc.obj
 0001:000001fc       ??_C@_1DI@MKCLCMDC@?$AA?9?$AAO?$AAE?$AAM?$AAS?$AAe?$AAt?$AAA?$AAl?$AAa?$AAr?$AAm?$AAT?$AAi?$AAm?$AAe?$AA?$CI?$AAr?$AAc?$AA?5?$AA?$DN?$AA?5?$AA?$CF?$AAd?$AA?$CJ?$AA?$AN?$AA?6?$AA?$AA@ 000111fc     oal:rtc.obj
 0001:00000234       ??_C@_1CK@MHPMFJLM@?$AA?$CL?$AAO?$AAE?$AAM?$AAS?$AAe?$AAt?$AAA?$AAl?$AAa?$AAr?$AAm?$AAT?$AAi?$AAm?$AAe?$AA?$CI?$AA?$CJ?$AA?$AN?$AA?6?$AA?$AA@ 00011234     oal:rtc.obj
 0001:00000260       ??_C@_1CE@MFAIBJGB@?$AA?9?$AAO?$AAE?$AAM?$AAG?$AAe?$AAt?$AAR?$AAe?$AAa?$AAl?$AAT?$AAi?$AAm?$AAe?$AA?$AN?$AA?6?$AA?$AA@ 00011260     oal:rtc.obj
 0001:00000284       ??_C@_1CE@MMIOOJN@?$AA?$CL?$AAO?$AAE?$AAM?$AAG?$AAe?$AAt?$AAR?$AAe?$AAa?$AAl?$AAT?$AAi?$AAm?$AAe?$AA?$AN?$AA?6?$AA?$AA@ 00011284     oal:rtc.obj
 0001:000002a8       ??_C@_1DG@MOFFCBMN@?$AA?9?$AAO?$AAE?$AAM?$AAS?$AAe?$AAt?$AAR?$AAe?$AAa?$AAl?$AAT?$AAi?$AAm?$AAe?$AA?$CI?$AAr?$AAc?$AA?5?$AA?$DN?$AA?5?$AA?$CF?$AAd?$AA?$CJ?$AA?$AN?$AA?6?$AA?$AA@ 000112a8     oal:rtc.obj
 0001:000002e0       ??_C@_1CI@IHLOPPOG@?$AA?$CL?$AAO?$AAE?$AAM?$AAS?$AAe?$AAt?$AAR?$AAe?$AAa?$AAl?$AAT?$AAi?$AAm?$AAe?$AA?$CI?$AA?$CJ?$AA?$AN?$AA?6?$AA?$AA@ 000112e0     oal:rtc.obj
 0001:00000428       ??_C@_1BG@OFOAIMMC@?$AA?9?$AAO?$AAE?$AAM?$AAI?$AAn?$AAi?$AAt?$AA?$AN?$AA?6?$AA?$AA@ 00011428     oal:init.obj
 0001:00000440       ??_C@_1GI@LGFJGPEK@?$AAE?$AAR?$AAR?$AAO?$AAR?$AA?3?$AA?5?$AAO?$AAE?$AAM?$AAI?$AAn?$AAi?$AAt?$AA?3?$AA?5?$AAF?$AAa?$AAi?$AAl?$AAe?$AAd?$AA?5?$AAt?$AAo?$AA?5?$AAi?$AAn?$AAi?$AAt?$AAi?$AAa@ 00011440     oal:init.obj
 0001:000004a8       ??_C@_1GE@OIDINFAG@?$AAE?$AAR?$AAR?$AAO?$AAR?$AA?3?$AA?5?$AAO?$AAE?$AAM?$AAI?$AAn?$AAi?$AAt?$AA?3?$AA?5?$AAf?$AAa?$AAi?$AAl?$AAe?$AAd?$AA?5?$AAt?$AAo?$AA?5?$AAi?$AAn?$AAi?$AAt?$AAi?$AAa@ 000114a8     oal:init.obj
 0001:0000050c       ??_C@_1BG@JHBBNGEC@?$AA?$CL?$AAO?$AAE?$AAM?$AAI?$AAn?$AAi?$AAt?$AA?$AN?$AA?6?$AA?$AA@ 0001150c     oal:init.obj
 0001:000005b4       ??_C@_1FO@KLEPDFGH@?$AAI?$AAN?$AAF?$AAO?$AA?3?$AA?5?$AAO?$AAA?$AAL?$AAP?$AAC?$AAI?$AAI?$AAn?$AAi?$AAt?$AA?3?$AA?5?$AAA?$AAL?$AAI?$AA?5?$AAM?$AA1?$AA5?$AA3?$AA5?$AA?$CL?$AA?5?$AAB?$AAr?$AAi@ 000115b4     oal:pci.obj
 0001:00000614       ??_C@_1KC@DCPEFFNH@?$AA?9?$AAO?$AAA?$AAL?$AAP?$AAC?$AAI?$AAT?$AAr?$AAa?$AAn?$AAs?$AAB?$AAu?$AAs?$AAA?$AAd?$AAd?$AAr?$AAe?$AAs?$AAs?$AA?$CI?$AAa?$AAd?$AAd?$AAr?$AAe?$AAs?$AAs?$AAS?$AAp@ 00011614     oal:pci.obj
 0001:000006b8       ??_C@_1GC@GEGECAMG@?$AA?$CL?$AAO?$AAA?$AAL?$AAP?$AAC?$AAI?$AAT?$AAr?$AAa?$AAn?$AAs?$AAl?$AAa?$AAt?$AAe?$AAB?$AAu?$AAs?$AAA?$AAd?$AAd?$AAr?$AAe?$AAs?$AAs?$AA?$CI?$AA?$CF?$AAd?$AA?0?$AA?5?$AA0@ 000116b8     oal:pci.obj
 0001:000007ac       ??_C@_1CM@BMDDLKDO@?$AA?9?$AAO?$AAE?$AAM?$AAC?$AAa?$AAc?$AAh?$AAe?$AAR?$AAa?$AAn?$AAg?$AAe?$AAF?$AAl?$AAu?$AAs?$AAh?$AA?$AN?$AA?6?$AA?$AA@ 000117ac     oal_cache_vr5500_ms_v1:flush.obj
 0001:000007d8       ??_C@_1FE@FFFKHHBK@?$AA?$CL?$AAO?$AAE?$AAM?$AAC?$AAa?$AAc?$AAh?$AAe?$AAR?$AAa?$AAn?$AAg?$AAe?$AAF?$AAl?$AAu?$AAs?$AAh?$AA?$CI?$AA0?$AAx?$AA?$CF?$AA0?$AA8?$AAx?$AA?0?$AA?5?$AA?$CF?$AAd?$AA?0?$AA?5@ 000117d8     oal_cache_vr5500_ms_v1:flush.obj
 0001:000008bc       ??_C@_1DK@MNHNABCO@?$AA?9?$AAO?$AAA?$AAL?$AAP?$AAC?$AAI?$AAC?$AAf?$AAg?$AAR?$AAe?$AAa?$AAd?$AA?$CI?$AAc?$AAo?$AAu?$AAn?$AAt?$AA?5?$AA?$DN?$AA?5?$AA?$CF?$AAd?$AA?$CJ?$AA?$AN?$AA?6?$AA?$AA@ 000118bc     oal_pci_vrc5477_ms_v1:pci.obj
 0001:000008f8       ??_C@_1FK@CNBJLJNE@?$AAW?$AAA?$AAR?$AAN?$AA?3?$AA?5?$AAO?$AAA?$AAL?$AAP?$AAC?$AAI?$AAC?$AAf?$AAg?$AAR?$AAe?$AAa?$AAd?$AA?3?$AA?5?$AAU?$AAn?$AAs?$AAu?$AAp?$AAp?$AAo?$AAr?$AAt?$AAe?$AAd@ 000118f8     oal_pci_vrc5477_ms_v1:pci.obj
 0001:00000954       ??_C@_1FO@LANDCBKA@?$AA?$CL?$AAO?$AAA?$AAL?$AAP?$AAC?$AAI?$AAC?$AAf?$AAg?$AAR?$AAe?$AAa?$AAd?$AA?$CI?$AA?$CF?$AAd?$AA?0?$AA?5?$AA?$CF?$AAd?$AA?1?$AA?$CF?$AAd?$AA?1?$AA?$CF?$AAd?$AA?0?$AA?5?$AA?$CF?$AAd?$AA?0@ 00011954     oal_pci_vrc5477_ms_v1:pci.obj
 0001:000009b4       ??_C@_1DM@EPMIBKCC@?$AA?9?$AAO?$AAA?$AAL?$AAP?$AAC?$AAI?$AAC?$AAf?$AAg?$AAW?$AAr?$AAi?$AAt?$AAe?$AA?$CI?$AAc?$AAo?$AAu?$AAn?$AAt?$AA?5?$AA?$DN?$AA?5?$AA?$CF?$AAd?$AA?$CJ?$AA?$AN?$AA?6?$AA?$AA@ 000119b4     oal_pci_vrc5477_ms_v1:pci.obj
 0001:000009f0       ??_C@_1FM@EPMKIBLB@?$AAW?$AAA?$AAR?$AAN?$AA?3?$AA?5?$AAO?$AAA?$AAL?$AAP?$AAC?$AAI?$AAC?$AAf?$AAg?$AAW?$AAr?$AAi?$AAt?$AAe?$AA?3?$AA?5?$AAU?$AAn?$AAs?$AAu?$AAp?$AAp?$AAo?$AAr?$AAt?$AAe@ 000119f0     oal_pci_vrc5477_ms_v1:pci.obj
 0001:00000a4c       ??_C@_1FO@NKAJPICI@?$AA?$CL?$AAO?$AAA?$AAL?$AAP?$AAC?$AAI?$AAC?$AAf?$AAg?$AAW?$AAr?$AAi?$AAt?$AAe?$AA?$CI?$AA?$CF?$AAd?$AA?0?$AA?5?$AA?$CF?$AAd?$AA?1?$AA?$CF?$AAd?$AA?1?$AA?$CF?$AAd?$AA?0?$AA?5?$AA?$CF?$AAd@ 00011a4c     oal_pci_vrc5477_ms_v1:pci.obj
 0001:00000aac       ??_C@_1CE@HFBIALPK@?$AA?9?$AAO?$AAA?$AAL?$AAI?$AAn?$AAt?$AAr?$AAM?$AAa?$AAp?$AAI?$AAn?$AAi?$AAt?$AA?$AN?$AA?6?$AA?$AA@ 00011aac     oal_intr_fake_vrc5477_ms_v1:map.obj
 0001:00000ad0       ??_C@_1CE@LMNIPMAG@?$AA?$CL?$AAO?$AAA?$AAL?$AAI?$AAn?$AAt?$AAr?$AAM?$AAa?$AAp?$AAI?$AAn?$AAi?$AAt?$AA?$AN?$AA?6?$AA?$AA@ 00011ad0     oal_intr_fake_vrc5477_ms_v1:map.obj
 0001:00000af4       ??_C@_1DE@CBLJKBBB@?$AA?9?$AAO?$AAA?$AAL?$AAI?$AAn?$AAt?$AAr?$AAS?$AAt?$AAa?$AAt?$AAi?$AAc?$AAT?$AAr?$AAa?$AAn?$AAs?$AAl?$AAa?$AAt?$AAe?$AA?$AN?$AA?6?$AA?$AA@ 00011af4     oal_intr_fake_vrc5477_ms_v1:map.obj
 0001:00000b28       ??_C@_1EE@DPKCCBO@?$AA?$CL?$AAO?$AAA?$AAL?$AAI?$AAn?$AAt?$AAr?$AAS?$AAt?$AAa?$AAt?$AAi?$AAc?$AAT?$AAr?$AAa?$AAn?$AAs?$AAl?$AAa?$AAt?$AAe?$AA?$CI?$AA?$CF?$AAd?$AA?0?$AA?5?$AA?$CF?$AAd?$AA?$CJ?$AA?$AN@ 00011b28     oal_intr_fake_vrc5477_ms_v1:map.obj
 0001:00000b6c       ??_C@_1EA@JDMBMDEN@?$AA?9?$AAO?$AAA?$AAL?$AAT?$AAr?$AAa?$AAn?$AAs?$AAl?$AAa?$AAt?$AAe?$AAS?$AAy?$AAs?$AAI?$AAn?$AAt?$AAr?$AA?$CI?$AAr?$AAc?$AA?5?$AA?$DN?$AA?5?$AA?$CF?$AAd?$AA?$CJ?$AA?$AN?$AA?6?$AA?$AA@ 00011b6c     oal_intr_fake_vrc5477_ms_v1:map.obj
 0001:00000bac       ??_C@_1DG@HAMHNOBJ@?$AA?$CL?$AAO?$AAA?$AAL?$AAT?$AAr?$AAa?$AAn?$AAs?$AAl?$AAa?$AAt?$AAe?$AAS?$AAy?$AAs?$AAI?$AAn?$AAt?$AAr?$AA?$CI?$AA?$CF?$AAd?$AA?$CJ?$AA?$AN?$AA?6?$AA?$AA@ 00011bac     oal_intr_fake_vrc5477_ms_v1:map.obj
 0001:00000be4       ??_C@_1EK@JOJPHPGP@?$AA?9?$AAO?$AAA?$AAL?$AAI?$AAn?$AAt?$AAr?$AAT?$AAr?$AAa?$AAn?$AAs?$AAl?$AAa?$AAt?$AAe?$AAI?$AAr?$AAq?$AA?$CI?$AAs?$AAy?$AAs?$AAI?$AAn?$AAt?$AAr?$AA?5?$AA?$DN?$AA?5?$AA?$CF@ 00011be4     oal_intr_fake_vrc5477_ms_v1:map.obj
 0001:00000c30       ??_C@_1DG@IAFKCJEB@?$AA?$CL?$AAO?$AAA?$AAL?$AAI?$AAn?$AAt?$AAr?$AAT?$AAr?$AAa?$AAn?$AAs?$AAl?$AAa?$AAt?$AAe?$AAI?$AAr?$AAq?$AA?$CI?$AA?$CF?$AAd?$AA?$CJ?$AA?$AN?$AA?6?$AA?$AA@ 00011c30     oal_intr_fake_vrc5477_ms_v1:map.obj
 0001:00000c68       ??_C@_1EO@CCPDBEFN@?$AA?9?$AAO?$AAA?$AAL?$AAI?$AAn?$AAt?$AAr?$AAR?$AAe?$AAq?$AAu?$AAe?$AAs?$AAt?$AAS?$AAy?$AAs?$AAI?$AAn?$AAt?$AAr?$AA?$CI?$AAs?$AAy?$AAs?$AAI?$AAn?$AAt?$AAr?$AA?5?$AA?$DN@ 00011c68     oal_intr_fake_vrc5477_ms_v1:map.obj
 0001:00000cb8       ??_C@_1HE@LGNFBECO@?$AAE?$AAR?$AAR?$AAO?$AAR?$AA?3?$AA?5?$AAO?$AAA?$AAL?$AAI?$AAn?$AAt?$AAr?$AAR?$AAe?$AAq?$AAu?$AAe?$AAs?$AAt?$AAS?$AAy?$AAs?$AAI?$AAn?$AAt?$AAr?$AA?3?$AA?5?$AAN?$AAo@ 00011cb8     oal_intr_fake_vrc5477_ms_v1:map.obj
 0001:00000d2c       ??_C@_1JG@CKDDKDGB@?$AAE?$AAR?$AAR?$AAO?$AAR?$AA?3?$AA?5?$AAO?$AAA?$AAL?$AAI?$AAn?$AAt?$AAr?$AAR?$AAe?$AAq?$AAu?$AAe?$AAs?$AAt?$AAS?$AAy?$AAs?$AAI?$AAn?$AAt?$AAr?$AA?3?$AA?5?$AAS?$AAt@ 00011d2c     oal_intr_fake_vrc5477_ms_v1:map.obj
 0001:00000dc4       ??_C@_1FK@JNHCPMAP@?$AA?$CL?$AAO?$AAA?$AAL?$AAI?$AAn?$AAt?$AAr?$AAR?$AAe?$AAq?$AAu?$AAe?$AAs?$AAt?$AAS?$AAy?$AAs?$AAI?$AAn?$AAt?$AAr?$AA?$CI?$AA?$CF?$AAd?$AA?0?$AA?5?$AA0?$AAx?$AA?$CF?$AA0?$AA8@ 00011dc4     oal_intr_fake_vrc5477_ms_v1:map.obj
 0001:00000e20       ??_C@_1EE@GBADJBKJ@?$AA?9?$AAO?$AAA?$AAL?$AAI?$AAn?$AAt?$AAr?$AAR?$AAe?$AAl?$AAe?$AAa?$AAs?$AAe?$AAS?$AAy?$AAs?$AAI?$AAn?$AAt?$AAr?$AA?$CI?$AAr?$AAc?$AA?5?$AA?$DN?$AA?5?$AA?$CF?$AAd?$AA?$CJ?$AA?$AN@ 00011e20     oal_intr_fake_vrc5477_ms_v1:map.obj
 0001:00000e64       ??_C@_1HC@BIEMDHNG@?$AAE?$AAR?$AAR?$AAO?$AAR?$AA?3?$AA?5?$AAO?$AAA?$AAL?$AAI?$AAn?$AAt?$AAr?$AAR?$AAe?$AAl?$AAe?$AAa?$AAs?$AAe?$AAS?$AAy?$AAs?$AAI?$AAn?$AAt?$AAr?$AA?3?$AA?5?$AAI?$AAn@ 00011e64     oal_intr_fake_vrc5477_ms_v1:map.obj
 0001:00000ed8       ??_C@_1DK@GDEEGDPM@?$AA?$CL?$AAO?$AAA?$AAL?$AAI?$AAn?$AAt?$AAr?$AAR?$AAe?$AAl?$AAe?$AAa?$AAs?$AAe?$AAS?$AAy?$AAs?$AAI?$AAn?$AAt?$AAr?$AA?$CI?$AA?$CF?$AAd?$AA?$CJ?$AA?$AN?$AA?6?$AA?$AA@ 00011ed8     oal_intr_fake_vrc5477_ms_v1:map.obj
 0001:00000f14       ??_C@_1DM@KHBFOEPK@?$AA?9?$AAO?$AAE?$AAM?$AAI?$AAn?$AAt?$AAe?$AAr?$AAr?$AAu?$AAp?$AAt?$AAE?$AAn?$AAa?$AAb?$AAl?$AAe?$AA?$CI?$AAr?$AAc?$AA?5?$AA?$DN?$AA?5?$AA1?$AA?$CJ?$AA?$AN?$AA?6?$AA?$AA@ 00011f14     oal_intr_fake_vrc5477_ms_v1:map.obj
 0001:00000f50       ??_C@_1EI@HHGIJMMI@?$AA?$CL?$AAO?$AAE?$AAM?$AAI?$AAn?$AAt?$AAe?$AAr?$AAr?$AAu?$AAp?$AAt?$AAE?$AAn?$AAa?$AAb?$AAl?$AAe?$AA?$CI?$AA?$CF?$AAd?$AA?0?$AA?5?$AA0?$AAx?$AA?$CF?$AAx?$AA?0?$AA?5?$AA?$CF?$AAd@ 00011f50     oal_intr_fake_vrc5477_ms_v1:map.obj
 0001:00000f98       ??_C@_1CO@FKOPLHGO@?$AA?9?$AAO?$AAE?$AAM?$AAI?$AAn?$AAt?$AAe?$AAr?$AAr?$AAu?$AAp?$AAt?$AAD?$AAi?$AAs?$AAa?$AAb?$AAl?$AAe?$AA?$AN?$AA?6?$AA?$AA@ 00011f98     oal_intr_fake_vrc5477_ms_v1:map.obj
 0001:00000fc8       ??_C@_1DG@HOKLDENP@?$AA?$CL?$AAO?$AAE?$AAM?$AAI?$AAn?$AAt?$AAe?$AAr?$AAr?$AAu?$AAp?$AAt?$AAD?$AAi?$AAs?$AAa?$AAb?$AAl?$AAe?$AA?$CI?$AA?$CF?$AAd?$AA?$CJ?$AA?$AN?$AA?6?$AA?$AA@ 00011fc8     oal_intr_fake_vrc5477_ms_v1:map.obj
 0001:00001000       ??_C@_1CI@OPHGDEL@?$AA?9?$AAO?$AAE?$AAM?$AAI?$AAn?$AAt?$AAe?$AAr?$AAr?$AAu?$AAp?$AAt?$AAM?$AAa?$AAs?$AAk?$AA?$AN?$AA?6?$AA?$AA@ 00012000     oal_intr_fake_vrc5477_ms_v1:map.obj
 0001:00001028       ??_C@_1DI@MFEEGIMP@?$AA?$CL?$AAO?$AAE?$AAM?$AAI?$AAn?$AAt?$AAe?$AAr?$AAr?$AAu?$AAp?$AAt?$AAM?$AAa?$AAs?$AAk?$AA?$CI?$AA?$CF?$AAd?$AA?0?$AA?5?$AA?$CF?$AAd?$AA?$CJ?$AA?$AN?$AA?6?$AA?$AA@ 00012028     oal_intr_fake_vrc5477_ms_v1:map.obj
 0001:00001060       ??_C@_1CI@IOEKFHHP@?$AA?9?$AAO?$AAE?$AAM?$AAI?$AAn?$AAt?$AAe?$AAr?$AAr?$AAu?$AAp?$AAt?$AAD?$AAo?$AAn?$AAe?$AA?$AN?$AA?6?$AA?$AA@ 00012060     oal_intr_fake_vrc5477_ms_v1:map.obj
 0001:00001088       ??_C@_1DA@HAMHGFMF@?$AA?$CL?$AAO?$AAE?$AAM?$AAI?$AAn?$AAt?$AAe?$AAr?$AAr?$AAu?$AAp?$AAt?$AAD?$AAo?$AAn?$AAe?$AA?$CI?$AA?$CF?$AAd?$AA?$CJ?$AA?$AN?$AA?6?$AA?$AA@ 00012088     oal_intr_fake_vrc5477_ms_v1:map.obj
 0001:00001148       ??_C@_1DK@JEFKKIKI@?$AA?9?$AAO?$AAA?$AAL?$AAI?$AAn?$AAt?$AAe?$AAr?$AAr?$AAu?$AAp?$AAt?$AAI?$AAn?$AAi?$AAt?$AA?$CI?$AAr?$AAc?$AA?5?$AA?$DN?$AA?5?$AA?$CF?$AAd?$AA?$CJ?$AA?$AN?$AA?6?$AA?$AA@ 00012148     oal_intr_fake_vrc5477_ms_v1:intr.obj
 0001:00001184       ??_C@_1IA@PDOGDJHP@?$AAE?$AAR?$AAR?$AAO?$AAR?$AA?3?$AA?5?$AAO?$AAA?$AAL?$AAI?$AAn?$AAt?$AAr?$AAI?$AAn?$AAi?$AAt?$AA?3?$AA?5?$AAH?$AAo?$AAo?$AAk?$AAI?$AAn?$AAt?$AAe?$AAr?$AAr?$AAu?$AAp@ 00012184     oal_intr_fake_vrc5477_ms_v1:intr.obj
 0001:00001204       ??_C@_1IA@OEMOFNLP@?$AAE?$AAR?$AAR?$AAO?$AAR?$AA?3?$AA?5?$AAO?$AAA?$AAL?$AAI?$AAn?$AAt?$AAr?$AAI?$AAn?$AAi?$AAt?$AA?3?$AA?5?$AAH?$AAo?$AAo?$AAk?$AAI?$AAn?$AAt?$AAe?$AAr?$AAr?$AAu?$AAp@ 00012204     oal_intr_fake_vrc5477_ms_v1:intr.obj
 0001:00001284       ??_C@_1IA@NNLGPAPP@?$AAE?$AAR?$AAR?$AAO?$AAR?$AA?3?$AA?5?$AAO?$AAA?$AAL?$AAI?$AAn?$AAt?$AAr?$AAI?$AAn?$AAi?$AAt?$AA?3?$AA?5?$AAH?$AAo?$AAo?$AAk?$AAI?$AAn?$AAt?$AAe?$AAr?$AAr?$AAu?$AAp@ 00012284     oal_intr_fake_vrc5477_ms_v1:intr.obj
 0001:00001304       ??_C@_1IA@MKJOJEDP@?$AAE?$AAR?$AAR?$AAO?$AAR?$AA?3?$AA?5?$AAO?$AAA?$AAL?$AAI?$AAn?$AAt?$AAr?$AAI?$AAn?$AAi?$AAt?$AA?3?$AA?5?$AAH?$AAo?$AAo?$AAk?$AAI?$AAn?$AAt?$AAe?$AAr?$AAr?$AAu?$AAp@ 00012304     oal_intr_fake_vrc5477_ms_v1:intr.obj
 0001:00001384       ??_C@_1CI@LJHDCJDG@?$AA?$CL?$AAO?$AAA?$AAL?$AAI?$AAn?$AAt?$AAe?$AAr?$AAr?$AAu?$AAp?$AAt?$AAI?$AAn?$AAi?$AAt?$AA?$AN?$AA?6?$AA?$AA@ 00012384     oal_intr_fake_vrc5477_ms_v1:intr.obj
 0001:000013ac       ??_C@_1DO@NDIEKHNP@?$AA?9?$AAO?$AAA?$AAL?$AAI?$AAn?$AAt?$AAr?$AAR?$AAe?$AAq?$AAu?$AAe?$AAs?$AAt?$AAI?$AAr?$AAq?$AAs?$AA?$CI?$AAr?$AAc?$AA?5?$AA?$DN?$AA?5?$AA?$CF?$AAd?$AA?$CJ?$AA?$AN?$AA?6?$AA?$AA@ 000123ac     oal_intr_fake_vrc5477_ms_v1:intr.obj
 0001:000013ec       ??_C@_1HO@EBPJKEJJ@?$AA?$CL?$AAO?$AAA?$AAL?$AAI?$AAn?$AAt?$AAr?$AAR?$AAe?$AAq?$AAu?$AAe?$AAs?$AAt?$AAI?$AAr?$AAq?$AAs?$AA?$CI?$AA0?$AAx?$AA?$CF?$AA0?$AA8?$AAx?$AA?9?$AA?$DO?$AA?$CF?$AAd?$AA?1?$AA?$CF@ 000123ec     oal_intr_fake_vrc5477_ms_v1:intr.obj
 0001:0000146c       ??_C@_1DM@INNHDHDJ@?$AA?9?$AAO?$AAA?$AAL?$AAI?$AAn?$AAt?$AAr?$AAE?$AAn?$AAa?$AAb?$AAl?$AAe?$AAI?$AAr?$AAq?$AAs?$AA?$CI?$AAr?$AAc?$AA?5?$AA?$DN?$AA?5?$AA?$CF?$AAd?$AA?$CJ?$AA?$AN?$AA?6?$AA?$AA@ 0001246c     oal_intr_fake_vrc5477_ms_v1:intr.obj
 0001:000014a8       ??_C@_1EA@MEDKAPAI@?$AA?$CL?$AAO?$AAA?$AAL?$AAn?$AAt?$AAr?$AAE?$AAn?$AAa?$AAb?$AAl?$AAe?$AAI?$AAr?$AAq?$AAs?$AA?$CI?$AA?$CF?$AAd?$AA?0?$AA?5?$AA0?$AAx?$AA?$CF?$AA0?$AA8?$AAx?$AA?$CJ?$AA?$AN?$AA?6?$AA?$AA@ 000124a8     oal_intr_fake_vrc5477_ms_v1:intr.obj
 0001:000014e8       ??_C@_1CM@GPENGBBP@?$AA?9?$AAO?$AAA?$AAL?$AAI?$AAn?$AAt?$AAr?$AAD?$AAi?$AAs?$AAa?$AAb?$AAl?$AAe?$AAI?$AAr?$AAq?$AAs?$AA?$AN?$AA?6?$AA?$AA@ 000124e8     oal_intr_fake_vrc5477_ms_v1:intr.obj
 0001:00001514       ??_C@_1FA@GLJNAKPL@?$AA?$CL?$AAO?$AAA?$AAL?$AAI?$AAn?$AAt?$AAr?$AAD?$AAi?$AAs?$AAa?$AAb?$AAl?$AAe?$AAI?$AAr?$AAq?$AAs?$AA?$CI?$AA?$CF?$AAd?$AA?0?$AA?5?$AA0?$AAx?$AA?$CF?$AA0?$AA8?$AAx?$AA?5?$AA?9@ 00012514     oal_intr_fake_vrc5477_ms_v1:intr.obj
 0001:00001564       ??_C@_1CG@LBOJEJPE@?$AA?9?$AAO?$AAA?$AAL?$AAI?$AAn?$AAt?$AAr?$AAD?$AAo?$AAn?$AAe?$AAI?$AAr?$AAq?$AAs?$AA?$AN?$AA?6?$AA?$AA@ 00012564     oal_intr_fake_vrc5477_ms_v1:intr.obj
 0001:0000158c       ??_C@_1DO@FCJPHKGC@?$AA?$CL?$AAO?$AAA?$AAL?$AAI?$AAn?$AAt?$AAr?$AAD?$AAo?$AAn?$AAe?$AAI?$AAr?$AAq?$AAs?$AA?$CI?$AA?$CF?$AAd?$AA?0?$AA?5?$AA0?$AAx?$AA?$CF?$AA0?$AA8?$AAx?$AA?$CJ?$AA?$AN?$AA?6?$AA?$AA@ 0001258c     oal_intr_fake_vrc5477_ms_v1:intr.obj
 0001:0000177c       ??_C@_1DC@BNLGCJKD@?$AA?9?$AAO?$AAA?$AAL?$AAT?$AAi?$AAm?$AAe?$AAr?$AAI?$AAn?$AAi?$AAt?$AA?$CI?$AAr?$AAc?$AA?5?$AA?$DN?$AA?5?$AA?$CF?$AAd?$AA?$CJ?$AA?$AN?$AA?6?$AA?$AA@ 0001277c     oal_timer_vr5500_ms_v1:timer.obj
 0001:000017b0       ??_C@_1IC@EPAKBMMB@?$AAE?$AAR?$AAR?$AAO?$AAR?$AA?3?$AA?5?$AAO?$AAA?$AAL?$AAT?$AAi?$AAm?$AAe?$AAr?$AAI?$AAn?$AAi?$AAt?$AA?3?$AA?5?$AAH?$AAo?$AAo?$AAk?$AAI?$AAn?$AAt?$AAe?$AAr?$AAr?$AAu@ 000127b0     oal_timer_vr5500_ms_v1:timer.obj
 0001:00001834       ??_C@_1DI@BBHLNDEO@?$AA?$CL?$AAO?$AAA?$AAL?$AAT?$AAi?$AAm?$AAe?$AAr?$AAI?$AAn?$AAi?$AAt?$AA?$CI?$AA?$CF?$AAd?$AA?0?$AA?5?$AA?$CF?$AAd?$AA?0?$AA?5?$AA?$CF?$AAd?$AA?$CJ?$AA?$AN?$AA?6?$AA?$AA@ 00012834     oal_timer_vr5500_ms_v1:timer.obj
 0001:0000198c       ??_C@_1DC@ONFHCFK@?$AA?9?$AAO?$AAE?$AAM?$AAP?$AAr?$AAo?$AAf?$AAi?$AAl?$AAe?$AAT?$AAi?$AAm?$AAe?$AAr?$AAE?$AAn?$AAa?$AAb?$AAl?$AAe?$AA?$AN?$AA?6?$AA?$AA@ 0001298c     oal_profiler_mips:profiler.obj
 0001:000019c0       ??_C@_1DK@OJEFEGCL@?$AA?$CL?$AAO?$AAE?$AAM?$AAP?$AAr?$AAo?$AAf?$AAi?$AAl?$AAe?$AAT?$AAi?$AAm?$AAe?$AAr?$AAE?$AAn?$AAa?$AAb?$AAl?$AAe?$AA?$CI?$AA?$CF?$AAd?$AA?$CJ?$AA?$AN?$AA?6?$AA?$AA@ 000129c0     oal_profiler_mips:profiler.obj
 0001:000019fc       ??_C@_1DE@DGCDHBJ@?$AA?9?$AAO?$AAE?$AAM?$AAP?$AAr?$AAo?$AAf?$AAi?$AAl?$AAe?$AAT?$AAi?$AAm?$AAe?$AAr?$AAD?$AAi?$AAs?$AAa?$AAb?$AAl?$AAe?$AA?$AN?$AA?6?$AA?$AA@ 000129fc     oal_profiler_mips:profiler.obj
 0001:00001a30       ??_C@_1DI@ICCHIFPG@?$AA?$CL?$AAO?$AAE?$AAM?$AAP?$AAr?$AAo?$AAf?$AAi?$AAl?$AAe?$AAT?$AAi?$AAm?$AAe?$AAr?$AAD?$AAi?$AAs?$AAa?$AAb?$AAl?$AAe?$AA?$CI?$AA?$CJ?$AA?$AN?$AA?6?$AA?$AA@ 00012a30     oal_profiler_mips:profiler.obj
 0001:00001af8       ??_C@_1CG@HNAHJPBO@?$AA?$CK?$AA?$CK?$AA?$CK?$AA?5?$AAP?$AAo?$AAw?$AAe?$AAr?$AA?5?$AAO?$AAN?$AA?5?$AA?5?$AA?$CK?$AA?$CK?$AA?$CK?$AA?6?$AA?$AA@ 00012af8     oal_power_fake_vrc5477_ms_v1:power.obj
 0001:00001b20       ??_C@_1CG@HKALMEMO@?$AA?$CK?$AA?$CK?$AA?$CK?$AA?5?$AAP?$AAo?$AAw?$AAe?$AAr?$AA?5?$AAO?$AAF?$AAF?$AA?5?$AA?$CK?$AA?$CK?$AA?$CK?$AA?6?$AA?$AA@ 00012b20     oal_power_fake_vrc5477_ms_v1:power.obj
 0001:00001bd8       ??_C@_1EE@EOJLKFMG@?$AA?$CL?$AAO?$AAA?$AAL?$AAI?$AAo?$AAC?$AAt?$AAl?$AAH?$AAa?$AAl?$AAE?$AAn?$AAa?$AAb?$AAl?$AAe?$AAW?$AAa?$AAk?$AAe?$AA?$CI?$AAr?$AAc?$AA?5?$AA?$DN?$AA?5?$AA?$CF?$AAd?$AA?$CJ?$AA?$AN@ 00012bd8     oal_power_fake_vrc5477_ms_v1:ioctl.obj
 0001:00001c1c       ??_C@_1DO@BLFFHCCO@?$AAE?$AAR?$AAR?$AAO?$AAR?$AA?3?$AA?5?$AAO?$AAA?$AAL?$AAI?$AAo?$AAC?$AAt?$AAl?$AAH?$AAa?$AAl?$AAE?$AAn?$AAa?$AAb?$AAl?$AAe?$AAW?$AAa?$AAk?$AAe?$AA?3?$AA?5?$AA?$AA@ 00012c1c     oal_power_fake_vrc5477_ms_v1:ioctl.obj
 0001:00001c5c       ??_C@_1DG@KKNHDHOB@?$AAI?$AAn?$AAv?$AAa?$AAl?$AAi?$AAd?$AA?5?$AAS?$AAY?$AAS?$AAI?$AAN?$AAT?$AAR?$AA?5?$AAv?$AAa?$AAl?$AAu?$AAe?$AA?5?$AA?$CF?$AAd?$AA?$AN?$AA?6?$AA?$AA@ 00012c5c     oal_power_fake_vrc5477_ms_v1:ioctl.obj
 0001:00001c94       ??_C@_1EO@OMKOKHHJ@?$AA?$CL?$AAO?$AAA?$AAL?$AAI?$AAo?$AAC?$AAt?$AAl?$AAH?$AAa?$AAl?$AAE?$AAn?$AAa?$AAb?$AAl?$AAe?$AAW?$AAa?$AAk?$AAe?$AA?$CI?$AAs?$AAy?$AAs?$AAI?$AAn?$AAt?$AAr?$AA?5?$AA?$DN@ 00012c94     oal_power_fake_vrc5477_ms_v1:ioctl.obj
 0001:00001ce4       ??_C@_1EG@KJIPIGDP@?$AA?$CL?$AAO?$AAA?$AAL?$AAI?$AAo?$AAC?$AAt?$AAl?$AAH?$AAa?$AAl?$AAD?$AAi?$AAs?$AAa?$AAb?$AAl?$AAe?$AAW?$AAa?$AAk?$AAe?$AA?$CI?$AAr?$AAc?$AA?5?$AA?$DN?$AA?5?$AA?$CF?$AAd?$AA?$CJ@ 00012ce4     oal_power_fake_vrc5477_ms_v1:ioctl.obj
 0001:00001d2c       ??_C@_1EA@ENICBBFD@?$AAE?$AAR?$AAR?$AAO?$AAR?$AA?3?$AA?5?$AAO?$AAA?$AAL?$AAI?$AAo?$AAC?$AAt?$AAl?$AAH?$AAa?$AAl?$AAD?$AAi?$AAs?$AAa?$AAb?$AAl?$AAe?$AAW?$AAa?$AAk?$AAe?$AA?3?$AA?5?$AA?$AA@ 00012d2c     oal_power_fake_vrc5477_ms_v1:ioctl.obj
 0001:00001d6c       ??_C@_1FA@IFHNBJAE@?$AA?$CL?$AAO?$AAA?$AAL?$AAI?$AAo?$AAC?$AAt?$AAl?$AAH?$AAa?$AAl?$AAD?$AAi?$AAs?$AAa?$AAb?$AAl?$AAe?$AAW?$AAa?$AAk?$AAe?$AA?$CI?$AAs?$AAy?$AAs?$AAI?$AAn?$AAt?$AAr?$AA?5@ 00012d6c     oal_power_fake_vrc5477_ms_v1:ioctl.obj
 0001:00001dbc       ??_C@_1GG@MBGEPMGD@?$AA?$CL?$AAO?$AAA?$AAL?$AAI?$AAo?$AAC?$AAt?$AAl?$AAH?$AAa?$AAl?$AAG?$AAe?$AAt?$AAW?$AAa?$AAk?$AAe?$AAS?$AAo?$AAu?$AAr?$AAc?$AAe?$AA?$CI?$AAr?$AAc?$AA?5?$AA?$DN?$AA?5?$AA?$CF@ 00012dbc     oal_power_fake_vrc5477_ms_v1:ioctl.obj
 0001:00001e24       ??_C@_1DI@DFOIFPDM@?$AA?$CL?$AAO?$AAA?$AAL?$AAI?$AAo?$AAC?$AAt?$AAl?$AAH?$AAa?$AAl?$AAG?$AAe?$AAt?$AAW?$AAa?$AAk?$AAe?$AAS?$AAo?$AAu?$AAr?$AAc?$AAe?$AA?$AN?$AA?6?$AA?$AA@ 00012e24     oal_power_fake_vrc5477_ms_v1:ioctl.obj
 0001:00001eec       ??_C@_1DC@EGGJEANK@?$AA?9?$AAO?$AAE?$AAM?$AAI?$AAo?$AAC?$AAo?$AAn?$AAt?$AAr?$AAo?$AAl?$AA?$CI?$AAr?$AAc?$AA?5?$AA?$DN?$AA?5?$AA?$CF?$AAd?$AA?$CJ?$AA?$AN?$AA?6?$AA?$AA@ 00012eec     oal_ioctl_vrc5477_ms_v1:ioctl.obj
 0001:00001f20       ??_C@_1HM@LHHDIECD@?$AAO?$AAE?$AAM?$AAI?$AAo?$AAC?$AAo?$AAn?$AAt?$AAr?$AAo?$AAl?$AA?3?$AA?5?$AAU?$AAn?$AAs?$AAu?$AAp?$AAp?$AAo?$AAr?$AAt?$AAe?$AAd?$AA?5?$AAC?$AAo?$AAd?$AAe?$AA?5?$AA0@ 00012f20     oal_ioctl_vrc5477_ms_v1:ioctl.obj
 0001:00001f9c       ??_C@_1GA@KJDOLNLD@?$AA?$CL?$AAO?$AAE?$AAM?$AAI?$AAo?$AAC?$AAo?$AAn?$AAt?$AAr?$AAo?$AAl?$AA?$CI?$AA0?$AAx?$AA?$CF?$AAx?$AA?0?$AA?5?$AA0?$AAx?$AA?$CF?$AAx?$AA?0?$AA?5?$AA?$CF?$AAd?$AA?0?$AA?5?$AA0?$AAx@ 00012f9c     oal_ioctl_vrc5477_ms_v1:ioctl.obj
 0001:0000208c       ??_C@_1GM@LBPDAPNJ@?$AAI?$AAN?$AAF?$AAO?$AA?3?$AAO?$AAA?$AAL?$AAL?$AAo?$AAg?$AAS?$AAe?$AAt?$AAZ?$AAo?$AAn?$AAe?$AAs?$AA?3?$AA?5?$AAd?$AAp?$AAC?$AAu?$AAr?$AAS?$AAe?$AAt?$AAt?$AAi?$AAn@ 0001308c     oal_log:debug.obj
 0001:00002188       ??_C@_1CO@MMIOJNEP@?$AA?9?$AAB?$AAS?$AAP?$AAI?$AAn?$AAt?$AAr?$AAI?$AAn?$AAi?$AAt?$AA?$CI?$AAr?$AAc?$AA?5?$AA?$DN?$AA?5?$AA1?$AA?$CJ?$AA?$AN?$AA?6?$AA?$AA@ 00013188     oal:intr.obj
 0001:000021b8       ??_C@_1BO@PJBAJAIC@?$AA?$CL?$AAB?$AAS?$AAP?$AAI?$AAn?$AAt?$AAr?$AAI?$AAn?$AAi?$AAt?$AA?$AN?$AA?6?$AA?$AA@ 000131b8     oal:intr.obj
 0001:000021d8       ??_C@_1DO@BONGGNJG@?$AA?9?$AAB?$AAS?$AAP?$AAI?$AAn?$AAt?$AAr?$AAR?$AAe?$AAq?$AAu?$AAe?$AAs?$AAt?$AAI?$AAr?$AAq?$AAs?$AA?$CI?$AAr?$AAc?$AA?5?$AA?$DN?$AA?5?$AA?$CF?$AAd?$AA?$CJ?$AA?$AN?$AA?6?$AA?$AA@ 000131d8     oal:intr.obj
 0001:00002218       ??_C@_1GO@ICEFIGKK@?$AA?$CL?$AAB?$AAS?$AAP?$AAI?$AAn?$AAt?$AAr?$AAR?$AAe?$AAq?$AAu?$AAe?$AAs?$AAt?$AAI?$AAr?$AAq?$AAs?$AA?$CI?$AA?$CF?$AAd?$AA?1?$AA?$CF?$AAd?$AA?1?$AA0?$AAx?$AA?$CF?$AA0?$AA8?$AAx@ 00013218     oal:intr.obj
 0001:00002288       ??_C@_1DM@GADKKEEP@?$AA?9?$AAB?$AAS?$AAP?$AAI?$AAn?$AAt?$AAr?$AAE?$AAn?$AAa?$AAb?$AAl?$AAe?$AAI?$AAr?$AAq?$AA?$CI?$AAi?$AAr?$AAq?$AA?5?$AA?$DN?$AA?5?$AA?$CF?$AAd?$AA?$CJ?$AA?$AN?$AA?6?$AA?$AA@ 00013288     oal:intr.obj
 0001:000022c4       ??_C@_1DA@PAHKCAOI@?$AA?$CL?$AAB?$AAS?$AAP?$AAI?$AAn?$AAt?$AAr?$AAE?$AAn?$AAa?$AAb?$AAl?$AAe?$AAI?$AAr?$AAq?$AA?$CI?$AA?$CF?$AAd?$AA?$CJ?$AA?$AN?$AA?6?$AA?$AA@ 000132c4     oal:intr.obj
 0001:000022f4       ??_C@_1DM@GBABPOAA@?$AA?9?$AAB?$AAS?$AAP?$AAI?$AAn?$AAt?$AAr?$AAD?$AAi?$AAs?$AAa?$AAb?$AAl?$AAe?$AAI?$AAr?$AAq?$AA?$CI?$AAi?$AAr?$AAq?$AA?5?$AA?$DN?$AA?5?$AA?$CF?$AAd?$AA?$AN?$AA?6?$AA?$AA@ 000132f4     oal:intr.obj
 0001:00002330       ??_C@_1DC@CAJPFJLN@?$AA?$CL?$AAB?$AAS?$AAP?$AAI?$AAn?$AAt?$AAr?$AAD?$AAi?$AAs?$AAa?$AAb?$AAl?$AAe?$AAI?$AAr?$AAq?$AA?$CI?$AA?$CF?$AAd?$AA?$CJ?$AA?$AN?$AA?6?$AA?$AA@ 00013330     oal:intr.obj
 0001:00002364       ??_C@_1DI@MKBFOAP@?$AA?9?$AAB?$AAS?$AAP?$AAI?$AAn?$AAt?$AAr?$AAD?$AAo?$AAn?$AAe?$AAI?$AAr?$AAq?$AA?$CI?$AAi?$AAr?$AAq?$AA?5?$AA?$DN?$AA?5?$AA?$CF?$AAd?$AA?$CJ?$AA?$AN?$AA?6?$AA?$AA@ 00013364     oal:intr.obj
 0001:0000239c       ??_C@_1CM@KNGKPFDP@?$AA?$CL?$AAB?$AAS?$AAP?$AAI?$AAn?$AAt?$AAr?$AAD?$AAo?$AAn?$AAe?$AAI?$AAr?$AAq?$AA?$CI?$AA?$CF?$AAd?$AA?$CJ?$AA?$AN?$AA?6?$AA?$AA@ 0001339c     oal:intr.obj
 0001:000023c8       ??_C@_1DA@DGNPLGFC@?$AA?9?$AAB?$AAS?$AAP?$AAI?$AAn?$AAt?$AAr?$AAA?$AAc?$AAt?$AAi?$AAv?$AAe?$AAI?$AAr?$AAq?$AA?$CI?$AA?$CF?$AAd?$AA?$CJ?$AA?$AN?$AA?6?$AA?$AA@ 000133c8     oal:intr.obj
 0001:000023f8       ??_C@_1DA@LLHLNMJK@?$AA?$CL?$AAB?$AAS?$AAP?$AAI?$AAn?$AAt?$AAr?$AAA?$AAc?$AAt?$AAi?$AAv?$AAe?$AAI?$AAr?$AAq?$AA?$CI?$AA?$CF?$AAd?$AA?$CJ?$AA?$AN?$AA?6?$AA?$AA@ 000133f8     oal:intr.obj
 0001:000024b8       ??_C@_1BO@ELBOHHOJ@?$AA?9?$AAB?$AAS?$AAP?$AAP?$AAo?$AAw?$AAe?$AAr?$AAO?$AAf?$AAf?$AA?$AN?$AA?6?$AA?$AA@ 000134b8     oal:power.obj
 0001:000024d8       ??_C@_1BO@MCFMDNNJ@?$AA?$CL?$AAB?$AAS?$AAP?$AAP?$AAo?$AAw?$AAe?$AAr?$AAO?$AAf?$AAf?$AA?$AN?$AA?6?$AA?$AA@ 000134d8     oal:power.obj
 0001:000024f8       ??_C@_1BM@KPJEGMAL@?$AA?9?$AAB?$AAS?$AAP?$AAP?$AAo?$AAw?$AAe?$AAr?$AAO?$AAn?$AA?$AN?$AA?6?$AA?$AA@ 000134f8     oal:power.obj
 0001:00002514       ??_C@_1BM@KKCIGCEF@?$AA?$CL?$AAB?$AAS?$AAP?$AAP?$AAo?$AAw?$AAe?$AAr?$AAO?$AAn?$AA?$AN?$AA?6?$AA?$AA@ 00013514     oal:power.obj
 0001:00002530       ??_C@_1O@NBEBPFEE@?$AAM?$AAI?$AAP?$AAS?$AAI?$AAV?$AA?$AA@ 00013530     oal:ioctl.obj
 0001:00002540       ??_C@_1O@IOFKPCBB@?$AAV?$AAr?$AA5?$AA5?$AA0?$AA0?$AA?$AA@ 00013540     oal:ioctl.obj
 0001:00002550       ??_C@_1CA@DNHAAGPA@?$AAN?$AAE?$AAC?$AA?5?$AAC?$AAo?$AAr?$AAp?$AAo?$AAr?$AAa?$AAt?$AAi?$AAo?$AAn?$AA?$AA@ 00013550     oal:ioctl.obj
 0001:00002570       ??_C@_1CC@DIFOPCFA@?$AAN?$AAE?$AAC?$AA?5?$AAS?$AAG?$AAe?$AAa?$AAr?$AA?5?$AAV?$AAR?$AA5?$AA5?$AA0?$AA0?$AA?$AA@ 00013570     oal:ioctl.obj
 0001:00002594       ??_C@_1BG@FBAGADHI@?$AAS?$AAG?$AA2?$AA_?$AAV?$AAR?$AA5?$AA5?$AA0?$AA0?$AA?$AA@ 00013594     oal:ioctl.obj
 0001:0000263c       g_oalIoCtlTable            0001363c     oal:ioctl.obj
 0001:000027c8       ??_C@_1EI@PJAHKOP@?$AA?9?$AAO?$AAA?$AAL?$AAI?$AAo?$AAc?$AAt?$AAl?$AAH?$AAa?$AAl?$AAG?$AAe?$AAt?$AAC?$AAa?$AAc?$AAh?$AAe?$AAI?$AAn?$AAf?$AAo?$AA?$CI?$AAr?$AAc?$AA?5?$AA?$DN?$AA?5?$AA?$CF?$AAd@ 000137c8     oal_cache_vr5500_ms_v1:ioctl.obj
 0001:00002810       ??_C@_1GE@MBKHJMBD@?$AAW?$AAA?$AAR?$AAN?$AA?3?$AA?5?$AAO?$AAA?$AAL?$AAI?$AAo?$AAc?$AAt?$AAl?$AAH?$AAa?$AAl?$AAG?$AAe?$AAt?$AAC?$AAa?$AAc?$AAh?$AAe?$AAI?$AAn?$AAf?$AAo?$AA?3?$AA?5?$AAB@ 00013810     oal_cache_vr5500_ms_v1:ioctl.obj
 0001:00002874       ??_C@_1HM@KKNPJOOC@?$AAW?$AAA?$AAR?$AAN?$AA?3?$AA?5?$AAO?$AAA?$AAL?$AAI?$AAo?$AAc?$AAt?$AAl?$AAH?$AAa?$AAl?$AAG?$AAe?$AAt?$AAC?$AAa?$AAc?$AAh?$AAe?$AAI?$AAn?$AAf?$AAo?$AA?3?$AA?5?$AAI@ 00013874     oal_cache_vr5500_ms_v1:ioctl.obj
 0001:000028f0       ??_C@_1EA@GDPMLOAC@?$AA?$CL?$AAO?$AAA?$AAL?$AAI?$AAo?$AAc?$AAt?$AAl?$AAH?$AAa?$AAl?$AAG?$AAe?$AAt?$AAC?$AAa?$AAc?$AAh?$AAe?$AAI?$AAn?$AAf?$AAo?$AA?$CI?$AA?4?$AA?4?$AA?4?$AA?$CJ?$AA?$AN?$AA?6?$AA?$AA@ 000138f0     oal_cache_vr5500_ms_v1:ioctl.obj
 0001:000029c0       ??_C@_1DO@JHJONFOE@?$AA?9?$AAO?$AAA?$AAL?$AAI?$AAo?$AAC?$AAt?$AAl?$AAH?$AAa?$AAl?$AAD?$AAd?$AAk?$AAC?$AAa?$AAl?$AAl?$AA?$CI?$AAr?$AAc?$AA?5?$AA?$DN?$AA?5?$AA?$CF?$AAd?$AA?$CJ?$AA?$AN?$AA?6?$AA?$AA@ 000139c0     oal_io_pci:ioctl.obj
 0001:00002a00       ??_C@_1HM@DONGDDHM@?$AAE?$AAR?$AAR?$AAO?$AAR?$AA?3?$AA?5?$AAO?$AAA?$AAL?$AAI?$AAo?$AAc?$AAt?$AAl?$AAH?$AAa?$AAl?$AAD?$AAd?$AAk?$AAC?$AAa?$AAl?$AAl?$AA?3?$AA?5?$AAU?$AAn?$AAs?$AAu?$AAp@ 00013a00     oal_io_pci:ioctl.obj
 0001:00002a7c       ??_C@_1GE@BFODAIDF@?$AAE?$AAR?$AAR?$AAO?$AAR?$AA?3?$AA?5?$AAO?$AAA?$AAL?$AAI?$AAo?$AAc?$AAt?$AAl?$AAH?$AAa?$AAl?$AAD?$AAd?$AAk?$AAC?$AAa?$AAl?$AAl?$AA?3?$AA?5?$AAU?$AAn?$AAs?$AAu?$AAp@ 00013a7c     oal_io_pci:ioctl.obj
 0001:00002ae0       ??_C@_1FM@IFHLCDE@?$AAE?$AAR?$AAR?$AAO?$AAR?$AA?3?$AAO?$AAA?$AAL?$AAI?$AAo?$AAc?$AAt?$AAl?$AAH?$AAa?$AAl?$AAD?$AAd?$AAk?$AAC?$AAa?$AAl?$AAl?$AA?3?$AA?5?$AAI?$AAN?$AAV?$AAA?$AAL?$AAI@ 00013ae0     oal_io_pci:ioctl.obj
 0001:00002b3c       ??_C@_1DG@HOFDDFMH@?$AA?$CL?$AAO?$AAA?$AAL?$AAI?$AAo?$AAC?$AAt?$AAl?$AAH?$AAa?$AAl?$AAD?$AAd?$AAk?$AAC?$AAa?$AAl?$AAl?$AA?$CI?$AA?4?$AA?4?$AA?4?$AA?$CJ?$AA?$AN?$AA?6?$AA?$AA@ 00013b3c     oal_io_pci:ioctl.obj
 0001:00002c04       ??_C@_1DK@DKAHFGMP@?$AA?9?$AAO?$AAA?$AAL?$AAI?$AAo?$AAB?$AAu?$AAs?$AAP?$AAo?$AAw?$AAe?$AAr?$AAO?$AAf?$AAf?$AA?$CI?$AAr?$AAc?$AA?5?$AA?$DN?$AA?5?$AA?$CF?$AAd?$AA?$CJ?$AA?$AN?$AA?6?$AA?$AA@ 00013c04     oal_io_pci:power.obj
 0001:00002c40       ??_C@_1DI@PEAMECNB@?$AA?$CL?$AAO?$AAA?$AAL?$AAI?$AAo?$AAB?$AAu?$AAs?$AAP?$AAo?$AAw?$AAe?$AAr?$AAO?$AAf?$AAf?$AA?$CI?$AA?$CF?$AAd?$AA?0?$AA?5?$AA?$CF?$AAd?$AA?$CJ?$AA?$AN?$AA?6?$AA?$AA@ 00013c40     oal_io_pci:power.obj
 0001:00002c78       ??_C@_1DI@BEKMCAGI@?$AA?9?$AAO?$AAA?$AAL?$AAI?$AAo?$AAB?$AAu?$AAs?$AAP?$AAo?$AAw?$AAe?$AAr?$AAO?$AAn?$AA?$CI?$AAr?$AAc?$AA?5?$AA?$DN?$AA?5?$AA?$CF?$AAd?$AA?$CJ?$AA?$AN?$AA?6?$AA?$AA@ 00013c78     oal_io_pci:power.obj
 0001:00002cb0       ??_C@_1DG@BNAKMMEE@?$AA?$CL?$AAO?$AAA?$AAL?$AAI?$AAo?$AAB?$AAu?$AAs?$AAP?$AAo?$AAw?$AAe?$AAr?$AAO?$AAn?$AA?$CI?$AA?$CF?$AAd?$AA?0?$AA?5?$AA?$CF?$AAd?$AA?$CJ?$AA?$AN?$AA?6?$AA?$AA@ 00013cb0     oal_io_pci:power.obj
 0001:00002d78       ??_C@_1KE@FCFGNLKM@?$AA?9?$AAO?$AAA?$AAL?$AAT?$AAr?$AAa?$AAn?$AAs?$AAl?$AAa?$AAt?$AAe?$AAB?$AAu?$AAs?$AAA?$AAd?$AAd?$AAr?$AAe?$AAs?$AAs?$AA?$CI?$AAa?$AAd?$AAd?$AAr?$AAe?$AAs?$AAs?$AAS@ 00013d78     oal_io_pci:trans.obj
 0001:00002e1c       ??_C@_1GI@BPOGFGAB@?$AA?$CL?$AAO?$AAA?$AAL?$AAI?$AAo?$AAT?$AAr?$AAa?$AAn?$AAs?$AAl?$AAa?$AAt?$AAe?$AAB?$AAu?$AAs?$AAA?$AAd?$AAd?$AAr?$AAe?$AAs?$AAs?$AA?$CI?$AA?$CF?$AAd?$AA?0?$AA?5?$AA?$CF?$AAd@ 00013e1c     oal_io_pci:trans.obj
 0001:00002e84       ??_C@_1HM@IKCJOCJL@?$AA?9?$AAO?$AAA?$AAL?$AAT?$AAr?$AAa?$AAn?$AAs?$AAl?$AAa?$AAt?$AAe?$AAS?$AAy?$AAs?$AAt?$AAe?$AAm?$AAA?$AAd?$AAd?$AAr?$AAe?$AAs?$AAs?$AA?$CI?$AAb?$AAu?$AAs?$AAA?$AAd@ 00013e84     oal_io_pci:trans.obj
 0001:00002f00       ??_C@_1GC@GKDDBMML@?$AA?$CL?$AAO?$AAA?$AAL?$AAT?$AAr?$AAa?$AAn?$AAs?$AAl?$AAa?$AAt?$AAe?$AAS?$AAy?$AAs?$AAt?$AAe?$AAm?$AAA?$AAd?$AAd?$AAr?$AAe?$AAs?$AAs?$AA?$CI?$AA?$CF?$AAd?$AA?0?$AA?5?$AA?$CF@ 00013f00     oal_io_pci:trans.obj
 0001:00002f64       ??_C@_1EE@PJKFNFB@?$AA?9?$AAO?$AAA?$AAL?$AAP?$AAC?$AAI?$AAG?$AAe?$AAt?$AAD?$AAe?$AAv?$AAi?$AAc?$AAe?$AAI?$AAd?$AA?$CI?$AAi?$AAd?$AA?5?$AA?$DN?$AA?5?$AA0?$AAx?$AA?$CF?$AA0?$AA8?$AAx?$AA?$CJ?$AA?$AN@ 00013f64     oal_pci_vrc5477_ms_v1:id.obj
 0001:00002fa8       ??_C@_1EG@FOGMMDKF@?$AA?$CL?$AAO?$AAA?$AAL?$AAP?$AAC?$AAI?$AAG?$AAe?$AAt?$AAD?$AAe?$AAv?$AAi?$AAc?$AAe?$AAI?$AAd?$AA?$CI?$AA?$CF?$AAd?$AA?0?$AA?5?$AA?$CF?$AAd?$AA?1?$AA?$CF?$AAd?$AA?1?$AA?$CF?$AAd?$AA?$CJ@ 00013fa8     oal_pci_vrc5477_ms_v1:id.obj
 0001:00002ff0       ??_C@_1FC@DPGHJDLI@?$AA?9?$AAO?$AAA?$AAL?$AAP?$AAC?$AAI?$AAG?$AAe?$AAt?$AAD?$AAe?$AAv?$AAi?$AAc?$AAe?$AAM?$AAB?$AAA?$AAR?$AA?$CI?$AAa?$AAd?$AAd?$AAr?$AAe?$AAs?$AAs?$AA?5?$AA?$DN?$AA?5?$AA0@ 00013ff0     oal_pci_vrc5477_ms_v1:id.obj
 0001:00003044       ??_C@_1FC@NCOHMGLL@?$AA?$CL?$AAO?$AAA?$AAL?$AAP?$AAC?$AAI?$AAG?$AAe?$AAt?$AAD?$AAe?$AAv?$AAi?$AAc?$AAe?$AAM?$AAB?$AAA?$AAR?$AA?$CI?$AA?$CF?$AAd?$AA?0?$AA?5?$AA?$CF?$AAd?$AA?1?$AA?$CF?$AAd?$AA?1?$AA?$CF@ 00014044     oal_pci_vrc5477_ms_v1:id.obj
 0001:00003098       ??_C@_1FC@KFPMMNIB@?$AA?9?$AAO?$AAA?$AAL?$AAP?$AAC?$AAI?$AAG?$AAe?$AAt?$AAD?$AAe?$AAv?$AAi?$AAc?$AAe?$AAI?$AAn?$AAt?$AAe?$AAr?$AAr?$AAu?$AAp?$AAt?$AAP?$AAi?$AAn?$AA?$CI?$AAp?$AAi?$AAn@ 00014098     oal_pci_vrc5477_ms_v1:id.obj
 0001:000030ec       ??_C@_1GC@DFGHBFGL@?$AA?$CL?$AAO?$AAA?$AAL?$AAP?$AAC?$AAI?$AAG?$AAe?$AAt?$AAD?$AAe?$AAv?$AAi?$AAc?$AAe?$AAI?$AAn?$AAt?$AAe?$AAr?$AAr?$AAu?$AAp?$AAt?$AAP?$AAi?$AAn?$AA?$CI?$AA?$CF?$AAd?$AA?0@ 000140ec     oal_pci_vrc5477_ms_v1:id.obj
 0001:00003150       ??_C@_1EI@IFJMDBCG@?$AA?9?$AAO?$AAA?$AAL?$AAP?$AAC?$AAI?$AAG?$AAe?$AAt?$AAH?$AAe?$AAa?$AAd?$AAe?$AAr?$AAT?$AAy?$AAp?$AAe?$AA?$CI?$AAt?$AAy?$AAp?$AAe?$AA?5?$AA?$DN?$AA?5?$AA?$CF?$AA0?$AA2?$AAx@ 00014150     oal_pci_vrc5477_ms_v1:id.obj
 0001:00003198       ??_C@_1FC@DMGEKDOE@?$AA?$CL?$AAO?$AAA?$AAL?$AAP?$AAC?$AAI?$AAG?$AAe?$AAt?$AAH?$AAe?$AAa?$AAd?$AAe?$AAr?$AAT?$AAy?$AAp?$AAe?$AA?$CI?$AA?$CF?$AAd?$AA?0?$AA?5?$AA?$CF?$AAd?$AA?1?$AA?$CF?$AAd?$AA?1?$AA?$CF@ 00014198     oal_pci_vrc5477_ms_v1:id.obj
 0001:000031ec       ??_C@_1EA@EAJIBAKP@?$AA?9?$AAO?$AAA?$AAL?$AAP?$AAC?$AAI?$AAG?$AAe?$AAt?$AAS?$AAu?$AAc?$AAB?$AAu?$AAs?$AAN?$AAu?$AAm?$AA?$CI?$AAn?$AAu?$AAm?$AA?5?$AA?$DN?$AA?5?$AA?$CF?$AAd?$AA?$CJ?$AA?$AN?$AA?6?$AA?$AA@ 000141ec     oal_pci_vrc5477_ms_v1:id.obj
 0001:0000322c       ??_C@_1FA@BDFOPHMC@?$AA?$CL?$AAO?$AAA?$AAL?$AAP?$AAC?$AAI?$AAG?$AAe?$AAt?$AAS?$AAu?$AAc?$AAB?$AAu?$AAs?$AAN?$AAu?$AAm?$AA?$CI?$AA?$CF?$AAd?$AA?0?$AA?5?$AA?$CF?$AAd?$AA?1?$AA?$CF?$AAd?$AA?1?$AA?$CF?$AAd@ 0001422c     oal_pci_vrc5477_ms_v1:id.obj
 0001:0000327c       ??_C@_1EA@OPNMICOI@?$AA?9?$AAO?$AAA?$AAL?$AAP?$AAC?$AAI?$AAG?$AAe?$AAt?$AAS?$AAu?$AAb?$AAB?$AAu?$AAs?$AAN?$AAu?$AAm?$AA?$CI?$AAn?$AAu?$AAm?$AA?5?$AA?$DN?$AA?5?$AA?$CF?$AAd?$AA?$CJ?$AA?$AN?$AA?6?$AA?$AA@ 0001427c     oal_pci_vrc5477_ms_v1:id.obj
 0001:000032bc       ??_C@_1FA@OMLOEBF@?$AA?$CL?$AAO?$AAA?$AAL?$AAP?$AAC?$AAI?$AAG?$AAe?$AAt?$AAS?$AAu?$AAb?$AAB?$AAu?$AAs?$AAN?$AAu?$AAm?$AA?$CI?$AA?$CF?$AAd?$AA?0?$AA?5?$AA?$CF?$AAd?$AA?1?$AA?$CF?$AAd?$AA?1?$AA?$CF?$AAd@ 000142bc     oal_pci_vrc5477_ms_v1:id.obj
 0001:0000339c       ??_C@_1EM@KGGHBFBJ@?$AA?$CL?$AAO?$AAA?$AAL?$AAI?$AAo?$AAC?$AAt?$AAl?$AAH?$AAa?$AAl?$AAR?$AAe?$AAq?$AAu?$AAe?$AAs?$AAt?$AAS?$AAy?$AAs?$AAI?$AAn?$AAt?$AAr?$AA?$CI?$AAr?$AAc?$AA?5?$AA?$DN?$AA?5@ 0001439c     oal_intr_fake_vrc5477_ms_v1:ioctl.obj
 0001:000033e8       ??_C@_1GK@HKEIPOOO@?$AAW?$AAA?$AAR?$AAN?$AA?3?$AA?5?$AAI?$AAO?$AAC?$AAT?$AAL?$AA_?$AAH?$AAA?$AAL?$AA_?$AAR?$AAE?$AAQ?$AAU?$AAE?$AAS?$AAT?$AA_?$AAS?$AAY?$AAS?$AAI?$AAN?$AAT?$AAR?$AA?5@ 000143e8     oal_intr_fake_vrc5477_ms_v1:ioctl.obj
 0001:00003454       ??_C@_1DK@BMKLIPKJ@?$AA?$CL?$AAO?$AAA?$AAL?$AAI?$AAo?$AAC?$AAt?$AAl?$AAH?$AAa?$AAl?$AAR?$AAe?$AAq?$AAu?$AAe?$AAs?$AAt?$AAS?$AAy?$AAs?$AAI?$AAn?$AAt?$AAr?$AA?$AN?$AA?6?$AA?$AA@ 00014454     oal_intr_fake_vrc5477_ms_v1:ioctl.obj
 0001:00003490       ??_C@_1GK@LIJAJEGD@?$AAW?$AAA?$AAR?$AAN?$AA?3?$AA?5?$AAI?$AAO?$AAC?$AAT?$AAL?$AA_?$AAH?$AAA?$AAL?$AA_?$AAR?$AAE?$AAL?$AAE?$AAA?$AAS?$AAE?$AA_?$AAS?$AAY?$AAS?$AAI?$AAN?$AAT?$AAR?$AA?5@ 00014490     oal_intr_fake_vrc5477_ms_v1:ioctl.obj
 0001:000034fc       ??_C@_1EM@DFAKLPBP@?$AA?9?$AAO?$AAA?$AAL?$AAI?$AAo?$AAC?$AAt?$AAl?$AAH?$AAa?$AAl?$AAR?$AAe?$AAq?$AAu?$AAe?$AAs?$AAt?$AAS?$AAy?$AAs?$AAI?$AAn?$AAt?$AAr?$AA?$CI?$AAr?$AAc?$AA?5?$AA?$DN?$AA?5@ 000144fc     oal_intr_fake_vrc5477_ms_v1:ioctl.obj
 0001:00003548       ??_C@_1GC@BACPHDPH@?$AAW?$AAA?$AAR?$AAN?$AA?3?$AA?5?$AAI?$AAO?$AAC?$AAT?$AAL?$AA_?$AAH?$AAA?$AAL?$AA_?$AAR?$AAE?$AAQ?$AAU?$AAE?$AAS?$AAT?$AA_?$AAI?$AAR?$AAQ?$AA?5?$AAi?$AAn?$AAv?$AAa@ 00014548     oal_intr_fake_vrc5477_ms_v1:ioctl.obj
 0001:000035ac       ??_C@_1DC@DIKJBBIL@?$AA?$CL?$AAO?$AAA?$AAL?$AAI?$AAo?$AAC?$AAt?$AAl?$AAH?$AAa?$AAl?$AAR?$AAe?$AAq?$AAu?$AAe?$AAs?$AAt?$AAI?$AAr?$AAq?$AA?$AN?$AA?6?$AA?$AA@ 000145ac     oal_intr_fake_vrc5477_ms_v1:ioctl.obj
 0001:00003670       ??_C@_1IG@BENIAHFO@?$AAE?$AAR?$AAR?$AAO?$AAR?$AA?3?$AA?5?$AAO?$AAA?$AAL?$AAI?$AAo?$AAC?$AAt?$AAl?$AAH?$AAa?$AAl?$AAU?$AAp?$AAd?$AAa?$AAt?$AAe?$AAM?$AAo?$AAd?$AAe?$AA?3?$AA?5?$AAD?$AAe@ 00014670     oal_ioctl_vrc5477_ms_v1:imgupd.obj
 0001:000036f8       ??_C@_1GK@GKDOOKDE@?$AAE?$AAR?$AAR?$AAO?$AAR?$AA?3?$AA?5?$AAO?$AAA?$AAL?$AAI?$AAo?$AAC?$AAt?$AAl?$AAH?$AAa?$AAl?$AAU?$AAp?$AAd?$AAa?$AAt?$AAe?$AAM?$AAo?$AAd?$AAe?$AA?3?$AA?5?$AAI?$AAn@ 000146f8     oal_ioctl_vrc5477_ms_v1:imgupd.obj
 0001:000037f4       ??_C@_1FA@KIKMJANO@?$AA?9?$AAO?$AAA?$AAL?$AAI?$AAo?$AAC?$AAt?$AAl?$AAH?$AAa?$AAl?$AAG?$AAe?$AAt?$AAR?$AAe?$AAg?$AAS?$AAe?$AAc?$AAu?$AAr?$AAe?$AAK?$AAe?$AAy?$AAs?$AA?$CI?$AAr?$AAc?$AA?5@ 000147f4     oal_ioctl_vrc5477_ms_v1:securekeys.obj
 0001:000038d4       ??_C@_1EE@LLJFHFAM@?$AA?9?$AAO?$AAA?$AAL?$AAI?$AAo?$AAC?$AAt?$AAl?$AAP?$AAr?$AAo?$AAc?$AAe?$AAs?$AAs?$AAo?$AAr?$AAI?$AAn?$AAf?$AAo?$AA?$CI?$AAr?$AAc?$AA?5?$AA?$DN?$AA?5?$AA?$CF?$AAd?$AA?$CJ?$AA?$AN@ 000148d4     oal_ioctl_vrc5477_ms_v1:procinfo.obj
 0001:00003918       ??_C@_1GI@EFCEJCLG@?$AAE?$AAR?$AAR?$AAO?$AAR?$AA?3?$AAO?$AAA?$AAL?$AAI?$AAo?$AAC?$AAt?$AAl?$AAP?$AAr?$AAo?$AAc?$AAe?$AAs?$AAs?$AAo?$AAr?$AAI?$AAn?$AAf?$AAo?$AA?3?$AA?5?$AAV?$AAe?$AAn@ 00014918     oal_ioctl_vrc5477_ms_v1:procinfo.obj
 0001:00003980       ??_C@_1GE@JPAPEENG@?$AAE?$AAR?$AAR?$AAO?$AAR?$AA?3?$AAO?$AAA?$AAL?$AAI?$AAo?$AAC?$AAt?$AAl?$AAP?$AAr?$AAo?$AAc?$AAe?$AAs?$AAs?$AAo?$AAr?$AAI?$AAn?$AAf?$AAo?$AA?3?$AA?5?$AAN?$AAa?$AAm@ 00014980     oal_ioctl_vrc5477_ms_v1:procinfo.obj
 0001:000039e4       ??_C@_1GE@OFFJPJMM@?$AAE?$AAR?$AAR?$AAO?$AAR?$AA?3?$AAO?$AAA?$AAL?$AAI?$AAo?$AAC?$AAt?$AAl?$AAP?$AAr?$AAo?$AAc?$AAe?$AAs?$AAs?$AAo?$AAr?$AAI?$AAn?$AAf?$AAo?$AA?3?$AA?5?$AAC?$AAo?$AAr@ 000149e4     oal_ioctl_vrc5477_ms_v1:procinfo.obj
 0001:00003a48       ??_C@_1GA@EACFLEMI@?$AAW?$AAA?$AAR?$AAN?$AA?3?$AA?5?$AAO?$AAA?$AAL?$AAI?$AAo?$AAC?$AAt?$AAl?$AAP?$AAr?$AAo?$AAc?$AAe?$AAs?$AAs?$AAo?$AAr?$AAI?$AAn?$AAf?$AAo?$AA?3?$AA?5?$AAB?$AAu?$AAf@ 00014a48     oal_ioctl_vrc5477_ms_v1:procinfo.obj
 0001:00003aa8       ??_C@_1GK@MJNAOGCM@?$AAW?$AAA?$AAR?$AAN?$AA?3?$AA?5?$AAO?$AAA?$AAL?$AAI?$AAo?$AAC?$AAt?$AAl?$AAP?$AAr?$AAo?$AAc?$AAe?$AAs?$AAs?$AAo?$AAr?$AAI?$AAn?$AAf?$AAo?$AA?3?$AA?5?$AAI?$AAn?$AAv@ 00014aa8     oal_ioctl_vrc5477_ms_v1:procinfo.obj
 0001:00003b14       ??_C@_1DM@NEACNOML@?$AA?$CL?$AAO?$AAA?$AAL?$AAI?$AAo?$AAC?$AAt?$AAl?$AAP?$AAr?$AAo?$AAc?$AAe?$AAs?$AAs?$AAo?$AAr?$AAI?$AAn?$AAf?$AAo?$AA?$CI?$AA?4?$AA?4?$AA?4?$AA?$CJ?$AA?$AN?$AA?6?$AA?$AA@ 00014b14     oal_ioctl_vrc5477_ms_v1:procinfo.obj
 0001:00003be0       ??_C@_1EK@CIONDGAI@?$AA?9?$AAO?$AAA?$AAL?$AAI?$AAo?$AAC?$AAt?$AAl?$AAH?$AAa?$AAl?$AAG?$AAe?$AAt?$AAR?$AAa?$AAn?$AAd?$AAo?$AAm?$AAS?$AAe?$AAe?$AAd?$AA?$CI?$AAr?$AAc?$AA?5?$AA?$DN?$AA?5?$AA?$CF@ 00014be0     oal_ioctl_vrc5477_ms_v1:randomseed.obj
 0001:00003c2c       ??_C@_1GI@DGLGODAM@?$AAW?$AAA?$AAR?$AAN?$AA?3?$AA?5?$AAO?$AAA?$AAL?$AAI?$AAo?$AAC?$AAt?$AAl?$AAH?$AAa?$AAl?$AAG?$AAe?$AAt?$AAR?$AAa?$AAn?$AAd?$AAo?$AAm?$AAS?$AAe?$AAe?$AAd?$AA?3?$AA?5@ 00014c2c     oal_ioctl_vrc5477_ms_v1:randomseed.obj
 0001:00003c94       ??_C@_1EC@KGKJCIAM@?$AA?$CL?$AAO?$AAA?$AAL?$AAI?$AAo?$AAc?$AAt?$AAl?$AAH?$AAa?$AAl?$AAG?$AAe?$AAt?$AAR?$AAa?$AAn?$AAd?$AAo?$AAm?$AAS?$AAe?$AAe?$AAd?$AA?$CI?$AA?4?$AA?4?$AA?4?$AA?$CJ?$AA?$AN?$AA?6@ 00014c94     oal_ioctl_vrc5477_ms_v1:randomseed.obj
 0001:00003d78       ??_C@_1NA@DANHDCDJ@?$AAW?$AAa?$AAr?$AAn?$AAi?$AAn?$AAg?$AA?3?$AA?5?$AAI?$AAO?$AAC?$AAT?$AAL?$AA_?$AAH?$AAA?$AAL?$AA_?$AAG?$AAE?$AAT?$AA_?$AAU?$AAU?$AAI?$AAD?$AA?5?$AAi?$AAs?$AA?5?$AAu@ 00014d78     oal_ioctl_vrc5477_ms_v1:uuid.obj
 0001:00003e48       ??_C@_1HC@GCDGDEMK@?$AAE?$AAR?$AAR?$AAO?$AAR?$AA?3?$AA?5?$AAO?$AAA?$AAL?$AAI?$AAo?$AAC?$AAt?$AAl?$AAH?$AAa?$AAl?$AAG?$AAe?$AAt?$AAU?$AAU?$AAI?$AAD?$AA?3?$AA?5?$AAD?$AAe?$AAv?$AAi?$AAc@ 00014e48     oal_ioctl_vrc5477_ms_v1:uuid.obj
 0001:00003ebc       ??_C@_1FK@JJDHOCFD@?$AAW?$AAA?$AAR?$AAN?$AA?3?$AA?5?$AAO?$AAA?$AAL?$AAI?$AAo?$AAC?$AAt?$AAl?$AAH?$AAa?$AAl?$AAG?$AAe?$AAt?$AAU?$AAU?$AAI?$AAD?$AA?3?$AA?5?$AAB?$AAu?$AAf?$AAf?$AAe?$AAr@ 00014ebc     oal_ioctl_vrc5477_ms_v1:uuid.obj
 0001:00003f18       ??_C@_1GE@PBBGNNAO@?$AAW?$AAA?$AAR?$AAN?$AA?3?$AA?5?$AAO?$AAA?$AAL?$AAI?$AAo?$AAC?$AAt?$AAl?$AAH?$AAa?$AAl?$AAG?$AAe?$AAt?$AAU?$AAU?$AAI?$AAD?$AA?3?$AA?5?$AAI?$AAn?$AAv?$AAa?$AAl?$AAi@ 00014f18     oal_ioctl_vrc5477_ms_v1:uuid.obj
 0001:00003f7c       ??_C@_1OE@KFAEFCPB@?$AAW?$AAa?$AAr?$AAn?$AAi?$AAn?$AAg?$AA?3?$AA?5?$AAy?$AAo?$AAu?$AA?5?$AAa?$AAr?$AAe?$AA?5?$AAc?$AAa?$AAl?$AAl?$AAi?$AAn?$AAg?$AA?5?$AAI?$AAO?$AAC?$AAT?$AAL?$AA_?$AAH@ 00014f7c     oal_ioctl_vrc5477_ms_v1:uuid.obj
 0001:00004078       ??_C@_1FO@DMDJMEMA@?$AA?9?$AAO?$AAA?$AAL?$AAI?$AAo?$AAC?$AAt?$AAl?$AAH?$AAa?$AAl?$AAG?$AAe?$AAt?$AAD?$AAe?$AAv?$AAi?$AAc?$AAe?$AAI?$AAn?$AAf?$AAo?$AA?$CI?$AAS?$AAP?$AAI?$AA?5?$AA?$DN?$AA?5@ 00015078     oal_ioctl_vrc5477_ms_v1:deviceinfo.obj
 0001:000040d8       ??_C@_1GG@BAANNGGI@?$AAE?$AAR?$AAR?$AAO?$AAR?$AA?3?$AA?5?$AAO?$AAA?$AAL?$AAI?$AAo?$AAC?$AAt?$AAl?$AAH?$AAa?$AAl?$AAG?$AAe?$AAt?$AAD?$AAe?$AAv?$AAi?$AAc?$AAe?$AAI?$AAn?$AAf?$AAo?$AA?3@ 000150d8     oal_ioctl_vrc5477_ms_v1:deviceinfo.obj
 0001:00004140       ??_C@_1GK@FDHCLEBC@?$AAE?$AAR?$AAR?$AAO?$AAR?$AA?3?$AA?5?$AAO?$AAA?$AAL?$AAI?$AAo?$AAC?$AAt?$AAl?$AAH?$AAa?$AAl?$AAG?$AAe?$AAt?$AAD?$AAe?$AAv?$AAi?$AAc?$AAe?$AAI?$AAn?$AAf?$AAo?$AA?3@ 00015140     oal_ioctl_vrc5477_ms_v1:deviceinfo.obj
 0001:000041ac       ??_C@_1EC@NLAFOPGI@?$AA?$CL?$AAO?$AAA?$AAL?$AAI?$AAo?$AAC?$AAt?$AAl?$AAH?$AAa?$AAl?$AAG?$AAe?$AAt?$AAD?$AAe?$AAv?$AAi?$AAc?$AAe?$AAI?$AAn?$AAf?$AAo?$AA?$CI?$AA?4?$AA?4?$AA?4?$AA?$CJ?$AA?$AN?$AA?6@ 000151ac     oal_ioctl_vrc5477_ms_v1:deviceinfo.obj
 0001:000041f0       ??_C@_11LOCGONAA@?$AA?$AA@ 000151f0     oal_ioctl_vrc5477_ms_v1:deviceinfo.obj
 0001:000041f4       ??_C@_1BEM@IMHNFGHE@?$AAW?$AAa?$AAr?$AAn?$AAi?$AAn?$AAg?$AA?3?$AA?5?$AAy?$AAo?$AAu?$AA?5?$AAa?$AAr?$AAe?$AA?5?$AAr?$AAe?$AAq?$AAu?$AAe?$AAs?$AAt?$AAi?$AAn?$AAg?$AA?5?$AAI?$AAO?$AAC?$AAT@ 000151f4     oal_ioctl_vrc5477_ms_v1:deviceinfo.obj
 0001:00004340       ??_C@_1CI@DNLIPKLH@?$AAS?$AAP?$AAI?$AA_?$AAG?$AAE?$AAT?$AAP?$AAL?$AAA?$AAT?$AAF?$AAO?$AAR?$AAM?$AAT?$AAY?$AAP?$AAE?$AA?$AA@ 00015340     oal_ioctl_vrc5477_ms_v1:deviceinfo.obj
 0001:00004368       ??_C@_1BO@MIPEKPNN@?$AAS?$AAP?$AAI?$AA_?$AAG?$AAE?$AAT?$AAO?$AAE?$AAM?$AAI?$AAN?$AAF?$AAO?$AA?$AA@ 00015368     oal_ioctl_vrc5477_ms_v1:deviceinfo.obj
 0001:00004388       ??_C@_1CO@EPEFNCOE@?$AAS?$AAP?$AAI?$AA_?$AAG?$AAE?$AAT?$AAP?$AAL?$AAA?$AAT?$AAF?$AAO?$AAR?$AAM?$AAV?$AAE?$AAR?$AAS?$AAI?$AAO?$AAN?$AA?$AA@ 00015388     oal_ioctl_vrc5477_ms_v1:deviceinfo.obj
 0001:000043b8       ??_C@_1CG@NCDPNLLL@?$AAS?$AAP?$AAI?$AA_?$AAG?$AAE?$AAT?$AAP?$AAR?$AAO?$AAJ?$AAE?$AAC?$AAT?$AAN?$AAA?$AAM?$AAE?$AA?$AA@ 000153b8     oal_ioctl_vrc5477_ms_v1:deviceinfo.obj
 0001:000043e0       ??_C@_1CI@BNCCNAEN@?$AAS?$AAP?$AAI?$AA_?$AAG?$AAE?$AAT?$AAP?$AAL?$AAA?$AAT?$AAF?$AAO?$AAR?$AAM?$AAN?$AAA?$AAM?$AAE?$AA?$AA@ 000153e0     oal_ioctl_vrc5477_ms_v1:deviceinfo.obj
 0001:00004408       ??_C@_1CE@JLAPMINP@?$AAS?$AAP?$AAI?$AA_?$AAG?$AAE?$AAT?$AAB?$AAO?$AAO?$AAT?$AAM?$AAE?$AAN?$AAA?$AAM?$AAE?$AA?$AA@ 00015408     oal_ioctl_vrc5477_ms_v1:deviceinfo.obj
 0001:0000442c       ??_C@_1BI@MGABGHAL@?$AAS?$AAP?$AAI?$AA_?$AAG?$AAE?$AAT?$AAU?$AAU?$AAI?$AAD?$AA?$AA@ 0001542c     oal_ioctl_vrc5477_ms_v1:deviceinfo.obj
 0001:00004454       ??_C@_1CG@IIMMCNFM@?$AAS?$AAP?$AAI?$AA_?$AAG?$AAE?$AAT?$AAG?$AAU?$AAI?$AAD?$AAP?$AAA?$AAT?$AAT?$AAE?$AAR?$AAN?$AA?$AA@ 00015454     oal_ioctl_vrc5477_ms_v1:deviceinfo.obj
 0001:0000447c       ??_C@_1GO@GEFDPJAG@?$AAW?$AAA?$AAR?$AAN?$AA?3?$AA?5?$AAO?$AAA?$AAL?$AAI?$AAo?$AAC?$AAt?$AAl?$AAH?$AAa?$AAl?$AAG?$AAe?$AAt?$AAD?$AAe?$AAv?$AAi?$AAc?$AAe?$AAi?$AAn?$AAf?$AAo?$AA?3?$AA?3@ 0001547c     oal_ioctl_vrc5477_ms_v1:deviceinfo.obj
 0001:000044ec       ??_C@_1NG@HBFOMIME@?$AAE?$AAR?$AAR?$AAO?$AAR?$AA?3?$AA?5?$AAO?$AAA?$AAL?$AAI?$AAo?$AAC?$AAt?$AAl?$AAH?$AAa?$AAl?$AAG?$AAe?$AAt?$AAD?$AAe?$AAv?$AAi?$AAc?$AAe?$AAi?$AAn?$AAf?$AAo?$AA?3@ 000154ec     oal_ioctl_vrc5477_ms_v1:deviceinfo.obj
 0001:000045c4       ??_C@_1LA@BNOICHNN@?$AAE?$AAR?$AAR?$AAO?$AAR?$AA?3?$AA?5?$AAO?$AAA?$AAL?$AAI?$AAo?$AAC?$AAt?$AAl?$AAH?$AAa?$AAl?$AAG?$AAe?$AAt?$AAD?$AAe?$AAv?$AAi?$AAc?$AAe?$AAI?$AAn?$AAf?$AAo?$AA?3@ 000155c4     oal_ioctl_vrc5477_ms_v1:deviceinfo.obj
 0001:00004704       ??_C@_1EG@HKOJPLNE@?$AA?9?$AAO?$AAA?$AAL?$AAI?$AAo?$AAC?$AAt?$AAl?$AAH?$AAa?$AAl?$AAG?$AAe?$AAt?$AAD?$AAe?$AAv?$AAi?$AAc?$AAe?$AAI?$AAD?$AA?$CI?$AAr?$AAc?$AA?5?$AA?$DN?$AA?5?$AA?$CF?$AAd?$AA?$CJ@ 00015704     oal_ioctl_vrc5477_ms_v1:deviceid.obj
 0001:0000474c       ??_C@_1GE@GPJLHAFO@?$AAW?$AAA?$AAR?$AAN?$AA?3?$AA?5?$AAO?$AAA?$AAL?$AAI?$AAo?$AAC?$AAt?$AAl?$AAH?$AAa?$AAl?$AAG?$AAe?$AAt?$AAD?$AAe?$AAv?$AAi?$AAc?$AAe?$AAI?$AAD?$AA?3?$AA?5?$AAI?$AAn@ 0001574c     oal_ioctl_vrc5477_ms_v1:deviceid.obj
 0001:000047b0       ??_C@_1LK@FOLPDAJB@?$AAW?$AAA?$AAR?$AAN?$AA?3?$AA?5?$AAO?$AAA?$AAL?$AAI?$AAo?$AAC?$AAt?$AAl?$AAH?$AAa?$AAl?$AAG?$AAe?$AAt?$AAD?$AAe?$AAv?$AAi?$AAc?$AAe?$AAI?$AAD?$AA?3?$AA?5?$AAC?$AAa@ 000157b0     oal_ioctl_vrc5477_ms_v1:deviceid.obj
 0001:0000486c       ??_C@_1LO@DFJMJCEI@?$AAW?$AAA?$AAR?$AAN?$AA?3?$AA?5?$AAO?$AAA?$AAL?$AAI?$AAo?$AAC?$AAt?$AAl?$AAH?$AAa?$AAl?$AAG?$AAe?$AAt?$AAD?$AAe?$AAv?$AAi?$AAc?$AAe?$AAI?$AAD?$AA?3?$AA?5?$AAC?$AAa@ 0001586c     oal_ioctl_vrc5477_ms_v1:deviceid.obj
 0001:0000492c       ??_C@_1PC@IHJIIKFF@?$AAW?$AAa?$AAr?$AAn?$AAi?$AAn?$AAg?$AA?3?$AA?5?$AAy?$AAo?$AAu?$AA?5?$AAa?$AAr?$AAe?$AA?5?$AAr?$AAe?$AAq?$AAu?$AAe?$AAs?$AAt?$AAi?$AAn?$AAg?$AA?5?$AAI?$AAO?$AAC?$AAT@ 0001592c     oal_ioctl_vrc5477_ms_v1:deviceid.obj
 0001:00004a20       ??_C@_1DO@MLDPBFAO@?$AA?$CL?$AAO?$AAA?$AAL?$AAI?$AAo?$AAc?$AAt?$AAl?$AAH?$AAa?$AAl?$AAG?$AAe?$AAt?$AAD?$AAe?$AAv?$AAi?$AAc?$AAe?$AAI?$AAD?$AA?$CI?$AA?4?$AA?4?$AA?4?$AA?$CJ?$AA?$AN?$AA?6?$AA?$AA@ 00015a20     oal_ioctl_vrc5477_ms_v1:deviceid.obj
 0001:00004af0       ??_C@_1CK@MAHBEPGM@?$AA?9?$AAO?$AAA?$AAL?$AAI?$AAo?$AAC?$AAt?$AAl?$AAH?$AAa?$AAl?$AAR?$AAe?$AAb?$AAo?$AAo?$AAt?$AA?$AN?$AA?6?$AA?$AA@ 00015af0     oal_ioctl_vrc5477_ms_v1:reboot.obj
 0001:00004b1c       ??_C@_1CK@LAAGFJIK@?$AA?$CL?$AAO?$AAA?$AAL?$AAI?$AAo?$AAC?$AAt?$AAl?$AAH?$AAa?$AAl?$AAR?$AAe?$AAb?$AAo?$AAo?$AAt?$AA?$AN?$AA?6?$AA?$AA@ 00015b1c     oal_ioctl_vrc5477_ms_v1:reboot.obj
 0001:00004c68       ??_C@_1EA@DJGHLELP@?$AA?9?$AAO?$AAA?$AAL?$AAA?$AAr?$AAg?$AAs?$AAQ?$AAu?$AAe?$AAr?$AAy?$AA?$CI?$AAp?$AAD?$AAa?$AAt?$AAa?$AA?5?$AA?$DN?$AA?5?$AA0?$AAx?$AA?$CF?$AA0?$AA8?$AAx?$AA?$CJ?$AA?$AN?$AA?6?$AA?$AA@ 00015c68     oal:args.obj
 0001:00004ca8       ??_C@_1CI@CLMEBIJE@?$AA?$CL?$AAO?$AAA?$AAL?$AAA?$AAr?$AAg?$AAs?$AAQ?$AAu?$AAe?$AAr?$AAy?$AA?$CI?$AA?$CF?$AAd?$AA?$CJ?$AA?$AN?$AA?6?$AA?$AA@ 00015ca8     oal:args.obj
 0001:00004cf0       StartUp                    00015cf0 f   oal:startup.obj
 0001:00004d10       KernelStart                00015d10 f   nkldr:mipstart.obj
 0001:00004dd0       KernelRelocate             00015dd0 f   nkldr:ldrcmn.obj
 0001:00004eb8       FindKernelEntry            00015eb8 f   nkldr:ldrcmn.obj
 0001:00004f98       SetOsAxsDataBlockPointer   00015f98 f   nkldr:kdinfo.obj
 0001:00004fc4       _stricmp                   00015fc4 f   nkldr:strings.obj
 0001:0000506c       memcmp                     0001606c f   fulllibc:memorym.obj
 0001:000053e4       memcpy                     000163e4 f   fulllibc:memorym.obj
 0001:00005518       memmove                    00016518 f   fulllibc:memorym.obj
 0001:00005cb0       memset                     00016cb0 f   fulllibc:memorym.obj
 0001:00005e48       tolower                    00016e48 f   fulllibc:tolower.obj
 0001:00005f08       OEMInitGlobals             00016f08 f   oemmain:oemglobal.obj
 0001:00005f88       NKOutputDebugString        00016f88 f   nkstub:nkstub.obj
 0001:00005fbc       NKvDbgPrintfW              00016fbc f   nkstub:nkstub.obj
 0001:00005ff8       NKDbgPrintfW               00016ff8 f   nkstub:nkstub.obj
 0001:0000604c       NKwvsprintfW               0001704c f   nkstub:nkstub.obj
 0001:000060a4       NKSetLastError             000170a4 f   nkstub:nkstub.obj
 0001:000060d8       NKGetLastError             000170d8 f   nkstub:nkstub.obj
 0001:00006110       EnterCriticalSection       00017110 f   nkstub:nkstub.obj
 0001:00006144       LeaveCriticalSection       00017144 f   nkstub:nkstub.obj
 0001:00006178       InitializeCriticalSection  00017178 f   nkstub:nkstub.obj
 0001:000061ac       DeleteCriticalSection      000171ac f   nkstub:nkstub.obj
 0001:000061e0       INTERRUPTS_OFF             000171e0 f   nkstub:nkstub.obj
 0001:0000620c       INTERRUPTS_ON              0001720c f   nkstub:nkstub.obj
 0001:00006238       INTERRUPTS_ENABLE          00017238 f   nkstub:nkstub.obj
 0001:00006278       HookInterrupt              00017278 f   nkstub:nkstub.obj
 0001:000062c0       UnhookInterrupt            000172c0 f   nkstub:nkstub.obj
 0001:00006308       NKCallIntChain             00017308 f   nkstub:nkstub.obj
 0001:00006348       NKIsSysIntrValid           00017348 f   nkstub:nkstub.obj
 0001:00006388       NKSetInterruptEvent        00017388 f   nkstub:nkstub.obj
 0001:000063c8       NKSleep                    000173c8 f   nkstub:nkstub.obj
 0001:000063fc       NKVirtualSetAttributes     000173fc f   nkstub:nkstub.obj
 0001:0000645c       NKCreateStaticMapping      0001745c f   nkstub:nkstub.obj
 0001:000064a4       NKDeleteStaticMapping      000174a4 f   nkstub:nkstub.obj
 0001:000064ec       NKRegCloseKey              000174ec f   nkstub:nkstub.obj
 0001:0000652c       NKRegFlushKey              0001752c f   nkstub:nkstub.obj
 0001:0000656c       NKRegCreateKeyExW          0001756c f   nkstub:nkstub.obj
 0001:000065ec       NKRegOpenKeyExW            000175ec f   nkstub:nkstub.obj
 0001:0000664c       NKRegQueryValueExW         0001764c f   nkstub:nkstub.obj
 0001:000066b4       NKRegSetValueExW           000176b4 f   nkstub:nkstub.obj
 0001:0000671c       NKForceCleanBoot           0001771c f   nkstub:nkstub.obj
 0001:00006748       NKReboot                   00017748 f   nkstub:nkstub.obj
 0001:00006788       NKwcslen                   00017788 f   nkstub:nkstub.obj
 0001:000067c8       NKwcscmp                   000177c8 f   nkstub:nkstub.obj
 0001:00006810       NKwcsicmp                  00017810 f   nkstub:nkstub.obj
 0001:00006858       NKwcsnicmp                 00017858 f   nkstub:nkstub.obj
 0001:000068a8       NKwcscpy                   000178a8 f   nkstub:nkstub.obj
 0001:000068e4       NKwcsncpy                  000178e4 f   nkstub:nkstub.obj
 0001:00006934       NKstrcmpiAandW             00017934 f   nkstub:nkstub.obj
 0001:0000697c       NKUnicodeToAscii           0001797c f   nkstub:nkstub.obj
 0001:000069c0       NKAsciiToUnicode           000179c0 f   nkstub:nkstub.obj
 0001:00006a04       NKSystemTimeToFileTime     00017a04 f   nkstub:nkstub.obj
 0001:00006a4c       NKFileTimeToSystemTime     00017a4c f   nkstub:nkstub.obj
 0001:00006a94       NKCompareFileTime          00017a94 f   nkstub:nkstub.obj
 0001:00006adc       ProfilerHit                00017adc f   nkstub:nkstub.obj
 0001:00006b34       ProfilerHitEx              00017b34 f   nkstub:nkstub.obj
 0001:00006b68       GetEPC                     00017b68 f   nkstub:nkstub.obj
 0001:00006ba0       NKPhysToVirt               00017ba0 f   nkstub:nkstub.obj
 0001:00006be8       NKVirtToPhys               00017be8 f   nkstub:nkstub.obj
 0001:00006c28       __GetUserKData             00017c28 f   nkstub:nkstub.obj
 0001:00006c4c       __report_gsfailure         00017c4c f   nkstub:nkstub.obj
 0001:00006c78       OEMSetAlarmTime            00017c78 f   oal:rtc.obj
 0001:00006cd0       OEMGetRealTime             00017cd0 f   oal:rtc.obj
 0001:00006d24       OEMSetRealTime             00017d24 f   oal:rtc.obj
 0001:00006d7c       OALRTCInit                 00017d7c f   oal:rtc.obj
 0001:00006f04       OALIoCtlHalInitRTC         00017f04 f   oal:rtc.obj
 0001:00007098       OALRTCAlarmIntrHandler     00018098 f   oal:rtc.obj
 0001:00007168       DS_SetAlarmTime            00018168 f   oal:rtc.obj
 0001:000073e0       DS_GetRealTime             000183e0 f   oal:rtc.obj
 0001:00007614       DS_SetRealTime             00018614 f   oal:rtc.obj
 0001:000078e4       RegValToDecimal            000188e4 f   oal:rtc.obj
 0001:0000794c       DecimalToRegVal            0001894c f   oal:rtc.obj
 0001:000079c4       OEMInitDebugSerial         000189c4 f   oal:debug.obj
 0001:00007a28       OEMWriteDebugByte          00018a28 f   oal:debug.obj
 0001:00007a6c       OEMReadDebugByte           00018a6c f   oal:debug.obj
 0001:00007ae0       OEMInit                    00018ae0 f   oal:init.obj
 0001:00007cdc       OALKitlPowerOn             00018cdc f   oal:init.obj
 0001:00007d28       OALKitlPowerOff            00018d28 f   oal:init.obj
 0001:00007d70       OEMWriteDebugLED           00018d70 f   oal:init.obj
 0001:00007d80       OALPCIInit                 00018d80 f   oal:pci.obj
 0001:000084a0       OALPCITransBusAddress      000194a0 f   oal:pci.obj
 0001:00008914       OEMCacheRangeFlush         00019914 f   oal_cache_vr5500_ms_v1:flush.obj
 0001:00008c28       OEMTLBSize                 00019c28     oal_cache_vr5500_ms_v1:tlb.obj
 0001:00008c2c       OALClearTLB                00019c2c f   oal_cache_vr5500_ms_v1:tlb.obj
 0001:00008c2c       OALClearITLBEntry          00019c2c f   oal_cache_vr5500_ms_v1:tlb.obj
 0001:00008c2c       OALClearDTLB               00019c2c f   oal_cache_vr5500_ms_v1:tlb.obj
 0001:00008c2c       OALClearTLBEntry           00019c2c f   oal_cache_vr5500_ms_v1:tlb.obj
 0001:00008c2c       OALClearITLB               00019c2c f   oal_cache_vr5500_ms_v1:tlb.obj
 0001:00008c2c       OALClearDTLBEntry          00019c2c f   oal_cache_vr5500_ms_v1:tlb.obj
 0001:00008c90       OALCacheInit               00019c90 f   oal_cache_vr5500_ms_v1:initcache.obj
 0001:00008d58       OALCacheGlobalsInit        00019d58 f   oal_cache_vr5500_ms_v1:initcache.obj
 0001:00008e54       OALFlushICacheLines        00019e54 f   oal_cache_vr5500_ms_v1:flushiclines.obj
 0001:00008e80       OALFlushICache             00019e80 f   oal_cache_vr5500_ms_v1:flushic.obj
 0001:00008eb4       OALCleanDCacheLines        00019eb4 f   oal_cache_vr5500_ms_v1:cleandclines.obj
 0001:00008ee0       OALFlushDCache             00019ee0 f   oal_cache_vr5500_ms_v1:flushdc.obj
 0001:00008ee0       OALCleanDCache             00019ee0 f   oal_cache_vr5500_ms_v1:flushdc.obj
 0001:00008f18       OALFlushDCacheLines        00019f18 f   oal_cache_vr5500_ms_v1:flushdclines.obj
 0001:00008f44       OALPCICfgRead              00019f44 f   oal_pci_vrc5477_ms_v1:pci.obj
 0001:000094c8       OALPCICfgWrite             0001a4c8 f   oal_pci_vrc5477_ms_v1:pci.obj
 0001:00009ad0       OALPCIPowerOff             0001aad0 f   oal_pci_vrc5477_ms_v1:pci.obj
 0001:00009adc       OALPCIPowerOn              0001aadc f   oal_pci_vrc5477_ms_v1:pci.obj
 0001:00009ae8       OALIntrMapInit             0001aae8 f   oal_intr_fake_vrc5477_ms_v1:map.obj
 0001:00009c48       OALIntrStaticTranslate     0001ac48 f   oal_intr_fake_vrc5477_ms_v1:map.obj
 0001:00009d70       OALIntrTranslateSysIntr    0001ad70 f   oal_intr_fake_vrc5477_ms_v1:map.obj
 0001:00009e9c       OALIntrTranslateIrq        0001ae9c f   oal_intr_fake_vrc5477_ms_v1:map.obj
 0001:00009fb4       OALIntrRequestSysIntr      0001afb4 f   oal_intr_fake_vrc5477_ms_v1:map.obj
 0001:0000a2e8       OALIntrReleaseSysIntr      0001b2e8 f   oal_intr_fake_vrc5477_ms_v1:map.obj
 0001:0000a4e4       OEMInterruptEnable         0001b4e4 f   oal_intr_fake_vrc5477_ms_v1:map.obj
 0001:0000a620       OEMInterruptDisable        0001b620 f   oal_intr_fake_vrc5477_ms_v1:map.obj
 0001:0000a708       OEMInterruptMask           0001b708 f   oal_intr_fake_vrc5477_ms_v1:map.obj
 0001:0000a82c       OEMInterruptDone           0001b82c f   oal_intr_fake_vrc5477_ms_v1:map.obj
 0001:0000a914       OALIntrInit                0001b914 f   oal_intr_fake_vrc5477_ms_v1:intr.obj
 0001:0000abec       OALIntrRequestIrqs         0001bbec f   oal_intr_fake_vrc5477_ms_v1:intr.obj
 0001:0000ad3c       OALIntrEnableIrqs          0001bd3c f   oal_intr_fake_vrc5477_ms_v1:intr.obj
 0001:0000afb4       OALIntrDisableIrqs         0001bfb4 f   oal_intr_fake_vrc5477_ms_v1:intr.obj
 0001:0000b204       OALIntrDoneIrqs            0001c204 f   oal_intr_fake_vrc5477_ms_v1:intr.obj
 0001:0000b43c       OALIntrHandler             0001c43c f   oal_intr_fake_vrc5477_ms_v1:intr.obj
 0001:0000b6fc       OALIntr0Handler            0001c6fc f   oal_intr_fake_vrc5477_ms_v1:intr.obj
 0001:0000b734       OALIntr1Handler            0001c734 f   oal_intr_fake_vrc5477_ms_v1:intr.obj
 0001:0000b76c       OALIntr2Handler            0001c76c f   oal_intr_fake_vrc5477_ms_v1:intr.obj
 0001:0000b7a4       OALIntr3Handler            0001c7a4 f   oal_intr_fake_vrc5477_ms_v1:intr.obj
 0001:0000b7dc       OEMIdle                    0001c7dc f   oal_timer_vr5500_ms_v1:idle.obj
 0001:0000b7e8       OEMGetTickCount            0001c7e8 f   oal_timer_vr5500_ms_v1:counts.obj
 0001:0000b89c       OALTimerQueryPerformanceFrequency 0001c89c f   oal_timer_vr5500_ms_v1:counts.obj
 0001:0000b8fc       OALTimerQueryPerformanceCounter 0001c8fc f   oal_timer_vr5500_ms_v1:counts.obj
 0001:0000b9e4       OALTimerInit               0001c9e4 f   oal_timer_vr5500_ms_v1:timer.obj
 0001:0000bcb8       OALTimerCountsSinceSysTick 0001ccb8 f   oal_timer_vr5500_ms_v1:timer.obj
 0001:0000bcec       OALTimerIntrHandler        0001ccec f   oal_timer_vr5500_ms_v1:timer.obj
 0001:0000be7c       OALTimerUpdateRescheduleTime 0001ce7c f   oal_timer_vr5500_ms_v1:timer.obj
 0001:0000bf30       RechargeTimer              0001cf30 f i oal_timer_vr5500_ms_v1:timer.obj
 0001:0000c130       OALStall                   0001d130 f   oal_timer_vr5500_ms_v1:util.obj
 0001:0000c1f0       OALGetTickCount            0001d1f0 f   oal_timer_vr5500_ms_v1:util.obj
 0001:0000c294       OALTimerGetCount           0001d294 f   oal_timer_vr5500_ms_v1:count.obj
 0001:0000c29c       OALTimerGetCompare         0001d29c f   oal_timer_vr5500_ms_v1:count.obj
 0001:0000c2a4       OALTimerSetCompare         0001d2a4 f   oal_timer_vr5500_ms_v1:count.obj
 0001:0000c2ac       OEMProfileTimerEnable      0001d2ac f   oal_profiler_mips:profiler.obj
 0001:0000c4c8       OEMProfileTimerDisable     0001d4c8 f   oal_profiler_mips:profiler.obj
 0001:0000c5b4       OALProfileIntrHandler      0001d5b4 f   oal_profiler_mips:profiler.obj
 0001:0000c798       OEMPowerOff                0001d798 f   oal_power_fake_vrc5477_ms_v1:power.obj
 0001:0000c988       OALPowerWakeSource         0001d988 f   oal_power_fake_vrc5477_ms_v1:ioctl.obj
 0001:0000c9f4       OALIoCtlHalEnableWake      0001d9f4 f   oal_power_fake_vrc5477_ms_v1:ioctl.obj
 0001:0000cc00       OALIoCtlHalDisableWake     0001dc00 f   oal_power_fake_vrc5477_ms_v1:ioctl.obj
 0001:0000ce10       OALIoCtlHalGetWakeSource   0001de10 f   oal_power_fake_vrc5477_ms_v1:ioctl.obj
 0001:0000cf88       OEMIoControl               0001df88 f   oal_ioctl_vrc5477_ms_v1:ioctl.obj
 0001:0000d2cc       OEMGetExtensionDRAM        0001e2cc f   oal_other:memory.obj
 0001:0000d2f0       OEMWriteDebugString        0001e2f0 f   oal_other:debug.obj
 0001:0000d34c       OALLogSetZones             0001e34c f   oal_log:debug.obj
 0001:0000d3c0       __GSHandlerCheck           0001e3c0 f   fulllibc:gshandler.obj
 0001:0000d410       __GSHandlerCheckCommon     0001e410 f   fulllibc:gshandler.obj
 0001:0000d4c0       __security_check_cookie    0001e4c0 f   fulllibc:mipssecgs.obj
 0001:0000d508       KITLIoctl                  0001e508 f   nkstub:kitlstub.obj
 0001:0000d570       BSPIntrInit                0001e570 f   oal:intr.obj
 0001:0000d858       BSPIntrRequestIrqs         0001e858 f   oal:intr.obj
 0001:0000df10       BSPIntrEnableIrq           0001ef10 f   oal:intr.obj
 0001:0000e0b8       BSPIntrDisableIrq          0001f0b8 f   oal:intr.obj
 0001:0000e234       BSPIntrDoneIrq             0001f234 f   oal:intr.obj
 0001:0000e3b4       BSPIntrActiveIrq           0001f3b4 f   oal:intr.obj
 0001:0000e630       BSPPowerOff                0001f630 f   oal:power.obj
 0001:0000e740       BSPPowerOn                 0001f740 f   oal:power.obj
 0001:0000e838       OALIoCtlHalPostInit        0001f838 f   oal:ioctl.obj
 0001:0000e87c       OALIoCtlHalGetCacheInfo    0001f87c f   oal_cache_vr5500_ms_v1:ioctl.obj
 0001:0000eb54       OALIoCtlHalDdkCall         0001fb54 f   oal_io_pci:ioctl.obj
 0001:0000f154       OALIoBusPowerOff           00020154 f   oal_io_pci:power.obj
 0001:0000f264       OALIoBusPowerOn            00020264 f   oal_io_pci:power.obj
 0001:0000f374       OALIoTransBusAddress       00020374 f   oal_io_pci:trans.obj
 0001:0000f54c       OALIoTransSystemAddress    0002054c f   oal_io_pci:trans.obj
 0001:0000f680       OALIoReadBusData           00020680 f   oal_io_pci:data.obj
 0001:0000f728       OALIoWriteBusData          00020728 f   oal_io_pci:data.obj
 0001:0000f7a8       OALPCIGetId                000207a8 f   oal_pci_vrc5477_ms_v1:id.obj
 0001:0000f8d4       OALPCIGetMBAR              000208d4 f   oal_pci_vrc5477_ms_v1:id.obj
 0001:0000fa24       OALPCIGetInterruptPin      00020a24 f   oal_pci_vrc5477_ms_v1:id.obj
 0001:0000fb54       OALPCIGetHeaderType        00020b54 f   oal_pci_vrc5477_ms_v1:id.obj
 0001:0000fc88       OALPCIGetSecBusNum         00020c88 f   oal_pci_vrc5477_ms_v1:id.obj
 0001:0000fdbc       OALPCIGetSubBusNum         00020dbc f   oal_pci_vrc5477_ms_v1:id.obj
 0001:0000fef0       OALIoCtlHalRequestSysIntr  00020ef0 f   oal_intr_fake_vrc5477_ms_v1:ioctl.obj
 0001:000102e4       OALIoCtlHalReleaseSysIntr  000212e4 f   oal_intr_fake_vrc5477_ms_v1:ioctl.obj
 0001:0001045c       OALIoCtlHalRequestIrq      0002145c f   oal_intr_fake_vrc5477_ms_v1:ioctl.obj
 0001:00010640       OALIoCtlHalUpdateMode      00021640 f   oal_ioctl_vrc5477_ms_v1:imgupd.obj
 0001:00010780       OALIoCtlHalGetRegSecureKeys 00021780 f   oal_ioctl_vrc5477_ms_v1:securekeys.obj
 0001:00010880       OALIoCtlProcessorInfo      00021880 f   oal_ioctl_vrc5477_ms_v1:procinfo.obj
 0001:00010c14       OALIoCtlHalGetRandomSeed   00021c14 f   oal_ioctl_vrc5477_ms_v1:randomseed.obj
 0001:00010fa8       OALIoCtlHalGetUUID         00021fa8 f   oal_ioctl_vrc5477_ms_v1:uuid.obj
 0001:00011204       OALIoCtlHalGetDeviceInfo   00022204 f   oal_ioctl_vrc5477_ms_v1:deviceinfo.obj
 0001:00011d88       OALIoCtlHalGetDeviceId     00022d88 f   oal_ioctl_vrc5477_ms_v1:deviceid.obj
 0001:000121a4       OALIoCtlHalReboot          000231a4 f   oal_ioctl_vrc5477_ms_v1:reboot.obj
 0001:000122d4       OALIoCtlHalInitRegistry    000232d4 f   oal_ioctl_vrc5477_ms_v1:reginit.obj
 0001:00012300       strlen                     00023300 f   fulllibc:strlenm.obj
 0001:00012320       OALArgsQuery               00023320 f   oal:args.obj
 0002:00000000       OsAxsDataBlock_2           00024000     nkldr:kdinfo.obj
 0002:00000080       OsAxsHwTrap                00024080     nkldr:kdinfo.obj
 0002:0000020c       g_pOemGlobal               0002420c     oemmain:oemglobal.obj
 0002:00000210       __security_cookie          00024210     nkstub:nkstub.obj
 0002:00000214       __security_cookie_complement 00024214     nkstub:nkstub.obj
 0002:00000218       dwOEMDrWatsonSize          00024218     oal:init.obj
 0002:0000021c       IntrPriority               0002421c     oal_intr_fake_vrc5477_ms_v1:priority.obj
 0002:0000025c       IntrMask                   0002425c     oal_intr_fake_vrc5477_ms_v1:priority.obj
 0002:00000264       g_oalWakeSource            00024264     oal_power_fake_vrc5477_ms_v1:ioctl.obj
 0002:00000268       initialOALLogZones         00024268     oal_log:debug.obj
 0002:0000026c       dpCurSettings              0002426c     oal_log:debug.obj
 0002:000006f0       g_oalIoCtlPlatformType     000246f0     oal:ioctl.obj
 0002:000006f4       g_oalIoCtlPlatformOEM      000246f4     oal:ioctl.obj
 0002:000006f8       g_oalIoCtlProcessorVendor  000246f8     oal:ioctl.obj
 0002:000006fc       g_oalIoCtlProcessorName    000246fc     oal:ioctl.obj
 0002:00000700       g_oalIoCtlProcessorCore    00024700     oal:ioctl.obj
 0002:000009b8       g_oalIoCtlInstructionSet   000249b8     oal:ioctl.obj
 0002:000009bc       g_oalIoCtlClockSpeed       000249bc     oal:ioctl.obj
 0002:000009c0       g_pNKGlobal                000249c0     <common>
 0002:000009e0       RTC_critsect               000249e0     <common>
 0002:00000a00       g_oalCacheInfo             00024a00     <common>
 0002:00000a60       g_oalTimer                 00024a60     <common>
 0002:00000a88       g_oalLastSysIntr           00024a88     <common>
 0004:00000000       KPAGE_VIRT                 00026000     nkldr:mipstart.obj

 entry point at        0001:00004cf0

 Static symbols

 0001:00005ea8       ReturnFalse                00016ea8 f   oemmain:oemglobal.obj
 0001:00005ec4       ReturnSelf                 00016ec4 f   oemmain:oemglobal.obj
 0001:00005ee4       FakeCalcPage               00016ee4 f   oemmain:oemglobal.obj
 0001:000115a8       ?GetPlatformType@@YAHPAXIPAIPAPBG@Z 000225a8 f   oal_ioctl_vrc5477_ms_v1:deviceinfo.obj
 0001:00011648       ?GetOEMInfo@@YAHPAXIPAIPAPBG@Z 00022648 f   oal_ioctl_vrc5477_ms_v1:deviceinfo.obj
 0001:000116f8       ?GetPlatformVersion@@YAHPAXIPAIPAPBG@Z 000226f8 f   oal_ioctl_vrc5477_ms_v1:deviceinfo.obj
 0001:00011798       ?GetProjectName@@YAHPAXIPAIPAPBG@Z 00022798 f   oal_ioctl_vrc5477_ms_v1:deviceinfo.obj
 0001:00011848       ?GetPlatformName@@YAHPAXIPAIPAPBG@Z 00022848 f   oal_ioctl_vrc5477_ms_v1:deviceinfo.obj
 0001:000118f8       ?GetBootMeName@@YAHPAXIPAIPAPBG@Z 000228f8 f   oal_ioctl_vrc5477_ms_v1:deviceinfo.obj
 0001:00011a68       ?GetUUID@@YAHPAXIPAIPAPBG@Z 00022a68 f   oal_ioctl_vrc5477_ms_v1:deviceinfo.obj
 0001:00011b34       ?GetGUIDPattern@@YAHPAXIPAIPAPBG@Z 00022b34 f   oal_ioctl_vrc5477_ms_v1:deviceinfo.obj
 0001:00011bd4       ?CheckBufferSize@@YAHPBXABIPAI1PBG@Z 00022bd4 f   oal_ioctl_vrc5477_ms_v1:deviceinfo.obj
 0001:00011d20       ?ErrorNotSupported@@YAXPBG@Z 00022d20 f   oal_ioctl_vrc5477_ms_v1:deviceinfo.obj
